(lp0
(lp1
S'255'
p2
aS'Water'
p3
aF54.16370993961914
aS''
p4
aa(lp5
S'208'
p6
aS'Energy'
p7
aF226.43861684845672
ag4
aa(lp8
S'268'
p9
aS'Energy'
p10
aF950.1527260018639
ag4
aa(lp11
S'203'
p12
aS'Protein'
p13
aF11.523910420051056
ag4
aa(lp14
S'257'
p15
aS'Adjusted Protein'
p16
aF7.54
ag4
aa(lp17
S'204'
p18
aS'Total lipid (fat)'
p19
aF10.647023671385472
ag4
aa(lp20
S'207'
p21
aS'Ash'
p22
aF1.8161694424330197
ag4
aa(lp23
S'205'
p24
aS'Carbohydrate, by difference'
p25
aF21.819062427477373
ag4
aa(lp26
S'291'
p27
aS'Fiber, total dietary'
p28
aF2.189939713639789
ag4
aa(lp29
S'269'
p30
aS'Sugars, total'
p31
aF8.46477915855667
ag4
aa(lp32
S'210'
p33
aS'Sucrose'
p34
aF2.7690544041450775
ag4
aa(lp35
S'211'
p36
aS'Glucose (dextrose)'
p37
aF1.4208768536428111
ag4
aa(lp38
S'212'
p39
aS'Fructose'
p40
aF1.2876709677419356
ag4
aa(lp41
S'213'
p42
aS'Lactose'
p43
aF0.7435555555555555
ag4
aa(lp44
S'214'
p45
aS'Maltose'
p46
aF0.3336890645586298
ag4
aa(lp47
S'287'
p48
aS'Galactose'
p49
aF0.02713467048710602
ag4
aa(lp50
S'209'
p51
aS'Starch'
p52
aF16.63267050912584
ag4
aa(lp53
S'301'
p54
aS'Calcium, Ca'
p55
aF76.5560261374637
ag4
aa(lp56
S'303'
p57
aS'Iron, Fe'
p58
aF2.743568645968599
ag4
aa(lp59
S'304'
p60
aS'Magnesium, Mg'
p61
aF35.559349798387096
ag4
aa(lp62
S'305'
p63
aS'Phosphorus, P'
p64
aF167.0755654983843
ag4
aa(lp65
S'306'
p66
aS'Potassium, K'
p67
aF283.52777777777777
ag4
aa(lp68
S'307'
p69
aS'Sodium, Na'
p70
aF320.91411833626245
ag4
aa(lp71
S'309'
p72
aS'Zinc, Zn'
p73
aF2.14466590880384
ag4
aa(lp74
S'312'
p75
aS'Copper, Cu'
p76
aF0.2015291321472226
ag4
aa(lp77
S'315'
p78
aS'Manganese, Mn'
p79
aF0.6710801173201606
ag4
aa(lp80
S'317'
p81
aS'Selenium, Se'
p82
aF15.829295282469424
ag4
aa(lp83
S'313'
p84
aS'Fluoride, F'
p85
aF29.68703007518797
ag4
aa(lp86
S'401'
p87
aS'Vitamin C, total ascorbic acid'
p88
aF8.727434193713263
ag4
aa(lp89
S'404'
p90
aS'Thiamin'
p91
aF0.22780539110719233
ag4
aa(lp92
S'405'
p93
aS'Riboflavin'
p94
aF0.25682765984172845
ag4
aa(lp95
S'406'
p96
aS'Niacin'
p97
aF3.704273907017765
ag4
aa(lp98
S'410'
p99
aS'Pantothenic acid'
p100
aF0.6545185758513932
ag4
aa(lp101
S'415'
p102
aS'Vitamin B-6'
p103
aF0.2967740002605184
ag4
aa(lp104
S'417'
p105
aS'Folate, total'
p106
aF52.51376644513766
ag4
aa(lp107
S'431'
p108
aS'Folic acid'
p109
aF23.816618911174785
ag4
aa(lp110
S'432'
p111
aS'Folate, food'
p112
aF24.93923939967944
ag4
aa(lp113
S'435'
p114
aS'Folate, DFE'
p115
aF65.56836055656382
ag4
aa(lp116
S'421'
p117
aS'Choline, total'
p118
aF45.034583149536836
ag4
aa(lp119
S'454'
p120
aS'Betaine'
p121
aF17.388530120481928
ag4
aa(lp122
S'418'
p123
aS'Vitamin B-12'
p124
aF1.4217436380772857
ag4
aa(lp125
S'578'
p126
aS'Vitamin B-12, added'
p127
aF0.2184854327335047
ag4
aa(lp128
S'320'
p129
aS'Vitamin A, RAE'
p130
aF114.23656369022429
ag4
aa(lp131
S'319'
p132
aS'Retinol'
p133
aF92.18189832500735
ag4
aa(lp134
S'321'
p135
aS'Carotene, beta'
p136
aF223.48431665421955
ag4
aa(lp137
S'322'
p138
aS'Carotene, alpha'
p139
aF32.498194945848375
ag4
aa(lp140
S'334'
p141
aS'Cryptoxanthin, beta'
p142
aF10.801980198019802
ag4
aa(lp143
S'318'
p144
aS'Vitamin A, IU'
p145
aF744.1195158850227
ag4
aa(lp146
S'337'
p147
aS'Lycopene'
p148
aF164.7000765110941
ag4
aa(lp149
S'338'
p150
aS'Lutein + zeaxanthin'
p151
aF192.57779485209375
ag4
aa(lp152
S'323'
p153
aS'Vitamin E (alpha-tocopherol)'
p154
aF1.3393425975414217
ag4
aa(lp155
S'573'
p156
aS'Vitamin E, added'
p157
aF0.2696756276383026
ag4
aa(lp158
S'341'
p159
aS'Tocopherol, beta'
p160
aF0.07397617697107203
ag4
aa(lp161
S'342'
p162
aS'Tocopherol, gamma'
p163
aF1.9600454545454544
ag4
aa(lp164
S'343'
p165
aS'Tocopherol, delta'
p166
aF0.4704185779816514
ag4
aa(lp167
S'344'
p168
aS'Tocotrienol, alpha'
p169
aF0.08382113821138211
ag4
aa(lp170
S'345'
p171
aS'Tocotrienol, beta'
p172
aF0.05067300658376006
ag4
aa(lp173
S'346'
p174
aS'Tocotrienol, gamma'
p175
aF0.09089167280766397
ag4
aa(lp176
S'347'
p177
aS'Tocotrienol, delta'
p178
aF0.012836041358936484
ag4
aa(lp179
S'328'
p180
aS'Vitamin D (D2 + D3)'
p181
aF0.5780597856739988
ag4
aa(lp182
S'325'
p183
aS'Vitamin D2 (ergocalciferol)'
p184
aF1.1210526315789473
ag4
aa(lp185
S'326'
p186
aS'Vitamin D3 (cholecalciferol)'
p187
aF0.9817989417989418
ag4
aa(lp188
S'324'
p189
aS'Vitamin D'
p190
aF23.15281954887218
ag4
aa(lp191
S'430'
p192
aS'Vitamin K (phylloquinone)'
p193
aF15.671342322398873
ag4
aa(lp194
S'429'
p195
aS'Dihydrophylloquinone'
p196
aF1.819807121661721
ag4
aa(lp197
S'428'
p198
aS'Menaquinone-4'
p199
aF2.622370936902486
ag4
aa(lp200
S'606'
p201
aS'Fatty acids, total saturated'
p202
aF3.6216847957457095
ag4
aa(lp203
S'607'
p204
aS'4:0'
p205
aF0.028619073179459654
ag4
aa(lp206
S'608'
p207
aS'6:0'
p208
aF0.017243373065290873
ag4
aa(lp209
S'609'
p210
aS'8:0'
p211
aF0.05194037011651816
ag4
aa(lp212
S'610'
p213
aS'10:0'
p214
aF0.05600177219268568
ag4
aa(lp215
S'611'
p216
aS'12:0'
p217
aF0.24648359133126935
ag4
aa(lp218
S'696'
p219
aS'13:0'
p220
aF0.000726235741444867
ag4
aa(lp221
S'612'
p222
aS'14:0'
p223
aF0.3024567955477446
ag4
aa(lp224
S'652'
p225
aS'15:0'
p226
aF0.023285318559556786
ag4
aa(lp227
S'613'
p228
aS'16:0'
p229
aF1.9130156316612192
ag4
aa(lp230
S'653'
p231
aS'17:0'
p232
aF0.06313479623824451
ag4
aa(lp233
S'614'
p234
aS'18:0'
p235
aF1.0287062757933685
ag4
aa(lp236
S'615'
p237
aS'20:0'
p238
aF0.03381012176560122
ag4
aa(lp239
S'624'
p240
aS'22:0'
p241
aF0.033118514992860545
ag4
aa(lp242
S'654'
p243
aS'24:0'
p244
aF0.012091765873015872
ag4
aa(lp245
S'645'
p246
aS'Fatty acids, total monounsaturated'
p247
aF4.144690071725179
ag4
aa(lp248
S'625'
p249
aS'14:1'
p250
aF0.02981825396825397
ag4
aa(lp251
S'697'
p252
aS'15:1'
p253
aF0.0036467129877071087
ag4
aa(lp254
S'626'
p255
aS'16:1 undifferentiated'
p256
aF0.23133946168554198
ag4
aa(lp257
S'673'
p258
aS'16:1 c'
p259
aF0.21857535387177351
ag4
aa(lp260
S'662'
p261
aS'16:1 t'
p262
aF0.013298229263746505
ag4
aa(lp263
S'687'
p264
aS'17:1'
p265
aF0.025873164218958612
ag4
aa(lp266
S'617'
p267
aS'18:1 undifferentiated'
p268
aF3.9152586133560185
ag4
aa(lp269
S'674'
p270
aS'18:1 c'
p271
aF4.62176618705036
ag4
aa(lp272
S'663'
p273
aS'18:1 t'
p274
aF0.5260349446709377
ag4
aa(lp275
S'859'
p276
aS'18:1-11 t (18:1t n-7)'
p277
aF0.38017763157894735
ag4
aa(lp278
S'628'
p279
aS'20:1'
p280
aF0.05882906808305167
ag4
aa(lp281
S'630'
p282
aS'22:1 undifferentiated'
p283
aF0.02873431994362227
ag4
aa(lp284
S'676'
p285
aS'22:1 c'
p286
aF0.004893292682926829
ag4
aa(lp287
S'664'
p288
aS'22:1 t'
p289
aF0.00042538354253835424
ag4
aa(lp290
S'671'
p291
aS'24:1 c'
p292
aF0.003938640132669984
ag4
aa(lp293
S'646'
p294
aS'Fatty acids, total polyunsaturated'
p295
aF2.2967723158159417
ag4
aa(lp296
S'618'
p297
aS'18:2 undifferentiated'
p298
aF1.8608758132956154
ag4
aa(lp299
S'675'
p300
aS'18:2 n-6 c,c'
p301
aF2.4043394720687536
ag4
aa(lp302
S'670'
p303
aS'18:2 CLAs'
p304
aF0.06335648148148149
ag4
aa(lp305
S'669'
p306
aS'18:2 t,t'
p307
aF0.028920679886685553
ag4
aa(lp308
S'666'
p309
aS'18:2 i'
p310
aF0.75945
ag4
aa(lp311
S'665'
p312
aS'18:2 t not further defined'
p313
aF0.052175473579262215
ag4
aa(lp314
S'619'
p315
aS'18:3 undifferentiated'
p316
aF0.1944067699368904
ag4
aa(lp317
S'851'
p318
aS'18:3 n-3 c,c,c (ALA)'
p319
aF0.2836433408577878
ag4
aa(lp320
S'685'
p321
aS'18:3 n-6 c,c,c'
p322
aF0.00808434547908232
ag4
aa(lp323
S'856'
p324
aS'18:3i'
p325
aF0.040084656084656084
ag4
aa(lp326
S'627'
p327
aS'18:4'
p328
aF0.005401392111368909
ag4
aa(lp329
S'672'
p330
aS'20:2 n-6 c,c'
p331
aF0.013152431011826544
ag4
aa(lp332
S'689'
p333
aS'20:3 undifferentiated'
p334
aF0.007928982725527832
ag4
aa(lp335
S'852'
p336
aS'20:3 n-3'
p337
aF0.0018658256880733945
ag4
aa(lp338
S'853'
p339
aS'20:3 n-6'
p340
aF0.010501397949673811
ag4
aa(lp341
S'620'
p342
aS'20:4 undifferentiated'
p343
aF0.03402684024429444
ag4
aa(lp344
S'855'
p345
aS'20:4 n-6'
p346
aF0.044314814814814814
ag4
aa(lp347
S'629'
p348
aS'20:5 n-3 (EPA)'
p349
aF0.0260735991568593
ag4
aa(lp350
S'857'
p351
aS'21:5'
p352
aF0.008136752136752136
ag4
aa(lp353
S'858'
p354
aS'22:4'
p355
aF0.0077224719101123595
ag4
aa(lp356
S'631'
p357
aS'22:5 n-3 (DPA)'
p358
aF0.011033457249070632
ag4
aa(lp359
S'621'
p360
aS'22:6 n-3 (DHA)'
p361
aF0.037380994514245265
ag4
aa(lp362
S'605'
p363
aS'Fatty acids, total trans'
p364
aF0.4213305581251927
ag4
aa(lp365
S'693'
p366
aS'Fatty acids, total trans-monoenoic'
p367
aF0.5303125
ag4
aa(lp368
S'695'
p369
aS'Fatty acids, total trans-polyenoic'
p370
aF0.08622357142857143
ag4
aa(lp371
S'601'
p372
aS'Cholesterol'
p373
aF41.45721212121212
ag4
aa(lp374
S'636'
p375
aS'Phytosterols'
p376
aF67.29058116232466
ag4
aa(lp377
S'638'
p378
aS'Stigmasterol'
p379
aF8.537878787878787
ag4
aa(lp380
S'639'
p381
aS'Campesterol'
p382
aF20.862595419847327
ag4
aa(lp383
S'641'
p384
aS'Beta-sitosterol'
p385
aF79.28787878787878
ag4
aa(lp386
S'501'
p387
aS'Tryptophan'
p388
aF0.16403879898615714
ag4
aa(lp389
S'502'
p390
aS'Threonine'
p391
aF0.6151379710144927
ag4
aa(lp392
S'503'
p393
aS'Isoleucine'
p394
aF0.6688322069897663
ag4
aa(lp395
S'504'
p396
aS'Leucine'
p397
aF1.1810772499034377
ag4
aa(lp398
S'505'
p399
aS'Lysine'
p400
aF1.1599491525423729
ag4
aa(lp401
S'506'
p402
aS'Methionine'
p403
aF0.3664182238489694
ag4
aa(lp404
S'507'
p405
aS'Cystine'
p406
aF0.18444548348587345
ag4
aa(lp407
S'508'
p408
aS'Phenylalanine'
p409
aF0.6266871497584541
ag4
aa(lp410
S'509'
p411
aS'Tyrosine'
p412
aF0.508869970845481
ag4
aa(lp413
S'510'
p414
aS'Valine'
p415
aF0.744839544313574
ag4
aa(lp416
S'511'
p417
aS'Arginine'
p418
aF0.9590772507260407
ag4
aa(lp419
S'512'
p420
aS'Histidine'
p421
aF0.46001991492652744
ag4
aa(lp422
S'513'
p423
aS'Alanine'
p424
aF0.8333686779925795
ag4
aa(lp425
S'514'
p426
aS'Aspartic acid'
p427
aF1.359998791784132
ag4
aa(lp428
S'515'
p429
aS'Glutamic acid'
p430
aF2.5172714676034347
ag4
aa(lp431
S'516'
p432
aS'Glycine'
p433
aF0.7632647920328061
ag4
aa(lp434
S'517'
p435
aS'Proline'
p436
aF0.7771226525821596
ag4
aa(lp437
S'518'
p438
aS'Serine'
p439
aF0.6350833821519235
ag4
aa(lp440
S'521'
p441
aS'Hydroxyproline'
p442
aF0.15766762383345298
ag4
aa(lp443
S'221'
p444
aS'Alcohol, ethyl'
p445
aF0.18636108512628624
ag4
aa(lp446
S'262'
p447
aS'Caffeine'
p448
aF4.411821893836282
ag4
aa(lp449
S'263'
p450
aS'Theobromine'
p451
aF7.696649029982363
ag4
aa(S'omega3'
p452
S'omega 3'
p453
F0.30014933859364124
S'g'
p454
tp455
a(S'omega6'
p456
S'omega 6'
p457
F2.0074470874912973
g454
tp458
a(S'omega7'
p459
S'omega 7'
p460
F4.496133905778603
g454
tp461
a(S'omega9'
p462
S'omega 9'
p463
F0.0
g454
tp464
a.