(dp0
S'01003'
p1
(I168
I795
tp2
sS'01068'
p3
(I119
I621
tp4
sS'01190'
p5
(I160
I759
tp6
sS'01191'
p7
(I263
I1292
tp8
sS'01060'
p9
(I65
I423
tp10
sS'01061'
p11
(I118
I620
tp12
sS'43379'
p13
(I127
I655
tp14
sS'01067'
p15
(I134
I695
tp16
sS'01086'
p17
(I15
I286
tp18
sS'43278'
p19
(I223
I1024
tp20
sS'01128'
p21
(I82
I500
tp22
sS'43273'
p23
(I31
I347
tp24
sS'43276'
p25
(I214
I971
tp26
sS'43275'
p27
(I129
I661
tp28
sS'43274'
p29
(I171
I799
tp30
sS'01141'
p31
(I66
I431
tp32
sS'01140'
p33
(I53
I397
tp34
sS'01146'
p35
(I219
I1005
tp36
sS'01145'
p37
(I199
I900
tp38
sS'01144'
p39
(I257
I1182
tp40
sS'43398'
p41
(I142
I717
tp42
sS'01260'
p43
(I162
I765
tp44
sS'01266'
p45
(I52
I384
tp46
sS'43078'
p47
(I216
I986
tp48
sS'01264'
p49
(I258
I1200
tp50
sS'01265'
p51
(I68
I432
tp52
sS'42290'
p53
(I19
I303
tp54
sS'43589'
p55
(I88
I516
tp56
sS'43260'
p57
(I235
I1072
tp58
sS'43261'
p59
(I79
I489
tp60
sS'01253'
p61
(I246
I1120
tp62
sS'43268'
p63
(I135
I696
tp64
sS'01206'
p65
(I264
I1302
tp66
sS'43340'
p67
(I188
I868
tp68
sS'01256'
p69
(I14
I278
tp70
sS'01255'
p71
(I100
I560
tp72
sS'01254'
p73
(I251
I1128
tp74
sS'01019'
p75
(I186
I862
tp76
sS'01018'
p77
(I184
I851
tp78
sS'01251'
p79
(I165
I787
tp80
sS'01250'
p81
(I50
I378
tp82
sS'01015'
p83
(I57
I410
tp84
sS'01014'
p85
(I21
I319
tp86
sS'01017'
p87
(I237
I1087
tp88
sS'01016'
p89
(I10
I267
tp90
sS'01011'
p91
(I213
I970
tp92
sS'01010'
p93
(I224
I1026
tp94
sS'01013'
p95
(I64
I423
tp96
sS'01012'
p97
(I56
I407
tp98
sS'01095'
p99
(I217
I989
tp100
sS'01094'
p101
(I232
I1054
tp102
sS'01097'
p103
(I58
I411
tp104
sS'01096'
p105
(I130
I669
tp106
sS'01091'
p107
(I154
I748
tp108
sS'01159'
p109
(I89
I519
tp110
sS'01093'
p111
(I105
I572
tp112
sS'01092'
p113
(I145
I723
tp114
sS'42205'
p115
(I139
I710
tp116
sS'01155'
p117
(I153
I745
tp118
sS'01156'
p119
(I231
I1048
tp120
sS'01126'
p121
(I98
I544
tp122
sS'01151'
p123
(I11
I269
tp124
sS'01152'
p125
(I17
I292
tp126
sS'01153'
p127
(I81
I499
tp128
sS'43597'
p129
(I102
I568
tp130
sS'01189'
p131
(I254
I1130
tp132
sS'01188'
p133
(I262
I1277
tp134
sS'43285'
p135
(I138
I709
tp136
sS'01259'
p137
(I197
I893
tp138
sS'01038'
p139
(I222
I1023
tp140
sS'43352'
p141
(I12
I272
tp142
sS'01258'
p143
(I54
I400
tp144
sS'01240'
p145
(I244
I1118
tp146
sS'01241'
p147
(I167
I792
tp148
sS'01242'
p149
(I161
I759
tp150
sS'01243'
p151
(I97
I542
tp152
sS'01244'
p153
(I143
I718
tp154
sS'01008'
p155
(I189
I871
tp156
sS'42189'
p157
(I62
I421
tp158
sS'01006'
p159
(I146
I724
tp160
sS'01007'
p161
(I128
I657
tp162
sS'01004'
p163
(I201
I902
tp164
sS'01005'
p165
(I191
I875
tp166
sS'01002'
p167
(I228
I1041
tp168
sS'42117'
p169
(I151
I742
tp170
sS'01029'
p171
(I175
I820
tp172
sS'01129'
p173
(I73
I447
tp174
sS'01087'
p175
(I4
I225
tp176
sS'01084'
p177
(I5
I230
tp178
sS'01085'
p179
(I9
I266
tp180
sS'01082'
p181
(I16
I292
tp182
sS'01083'
p183
(I6
I231
tp184
sS'01080'
p185
(I7
I256
tp186
sS'01081'
p187
(I44
I368
tp188
sS'01121'
p189
(I108
I574
tp190
sS'01120'
p191
(I110
I578
tp192
sS'01123'
p193
(I42
I366
tp194
sS'01122'
p195
(I24
I332
tp196
sS'01125'
p197
(I117
I616
tp198
sS'01124'
p199
(I2
I202
tp200
sS'01088'
p201
(I37
I358
tp202
sS'01089'
p203
(I27
I339
tp204
sS'01200'
p205
(I163
I772
tp206
sS'01106'
p207
(I41
I362
tp208
sS'01154'
p209
(I147
I730
tp210
sS'43205'
p211
(I185
I854
tp212
sS'01252'
p213
(I253
I1129
tp214
sS'01039'
p215
(I215
I977
tp216
sS'01157'
p217
(I152
I743
tp218
sS'01263'
p219
(I159
I758
tp220
sS'01033'
p221
(I207
I926
tp222
sS'01032'
p223
(I239
I1091
tp224
sS'01031'
p225
(I141
I714
tp226
sS'01030'
p227
(I196
I888
tp228
sS'01037'
p229
(I67
I432
tp230
sS'01036'
p231
(I72
I446
tp232
sS'01035'
p233
(I166
I789
tp234
sS'01034'
p235
(I150
I741
tp236
sS'01235'
p237
(I114
I591
tp238
sS'01138'
p239
(I87
I516
tp240
sS'01139'
p241
(I80
I493
tp242
sS'01231'
p243
(I83
I500
tp244
sS'01230'
p245
(I63
I422
tp246
sS'42135'
p247
(I209
I953
tp248
sS'44048'
p249
(I241
I1100
tp250
sS'01132'
p251
(I86
I513
tp252
sS'01133'
p253
(I205
I907
tp254
sS'01130'
p255
(I69
I435
tp256
sS'01131'
p257
(I51
I379
tp258
sS'01136'
p259
(I28
I341
tp260
sS'01238'
p261
(I176
I820
tp262
sS'01134'
p263
(I203
I903
tp264
sS'01135'
p265
(I22
I322
tp266
sS'01024'
p267
(I148
I736
tp268
sS'01025'
p269
(I169
I797
tp270
sS'01026'
p271
(I131
I677
tp272
sS'01027'
p273
(I170
I799
tp274
sS'01020'
p275
(I221
I1022
tp276
sS'01021'
p277
(I243
I1114
tp278
sS'01022'
p279
(I210
I958
tp280
sS'01023'
p281
(I193
I883
tp282
sS'01187'
p283
(I111
I581
tp284
sS'01186'
p285
(I93
I525
tp286
sS'01185'
p287
(I202
I902
tp288
sS'01184'
p289
(I38
I358
tp290
sS'01028'
p291
(I122
I630
tp292
sS'01182'
p293
(I136
I700
tp294
sS'01180'
p295
(I32
I349
tp296
sS'01107'
p297
(I78
I485
tp298
sS'42235'
p299
(I26
I338
tp300
sS'01105'
p301
(I85
I503
tp302
sS'01104'
p303
(I76
I471
tp304
sS'01103'
p305
(I91
I525
tp306
sS'01102'
p307
(I106
I572
tp308
sS'01109'
p309
(I34
I356
tp310
sS'01108'
p311
(I45
I369
tp312
sS'01226'
p313
(I1
I170
tp314
sS'01227'
p315
(I212
I966
tp316
sS'01224'
p317
(I137
I709
tp318
sS'01225'
p319
(I234
I1063
tp320
sS'01222'
p321
(I109
I574
tp322
sS'01223'
p323
(I173
I818
tp324
sS'01220'
p325
(I90
I521
tp326
sS'01221'
p327
(I36
I356
tp328
sS'01228'
p329
(I192
I881
tp330
sS'01229'
p331
(I194
I884
tp332
sS'01001'
p333
(I255
I1131
tp334
sS'01199'
p335
(I74
I457
tp336
sS'01053'
p337
(I206
I924
tp338
sS'01052'
p339
(I180
I843
tp340
sS'01055'
p341
(I75
I459
tp342
sS'01054'
p343
(I190
I871
tp344
sS'01057'
p345
(I101
I567
tp346
sS'01056'
p347
(I112
I585
tp348
sS'01059'
p349
(I8
I264
tp350
sS'01058'
p351
(I120
I623
tp352
sS'01192'
p353
(I242
I1103
tp354
sS'01193'
p355
(I164
I787
tp356
sS'01194'
p357
(I107
I573
tp358
sS'01110'
p359
(I133
I688
tp360
sS'01111'
p361
(I126
I644
tp362
sS'01112'
p363
(I20
I306
tp364
sS'01113'
p365
(I177
I840
tp366
sS'01114'
p367
(I25
I335
tp368
sS'01115'
p369
(I198
I898
tp370
sS'01116'
p371
(I35
I356
tp372
sS'01117'
p373
(I55
I403
tp374
sS'01118'
p375
(I23
I330
tp376
sS'01119'
p377
(I92
I525
tp378
sS'42303'
p379
(I157
I751
tp380
sS'01267'
p381
(I227
I1038
tp382
sS'01212'
p383
(I252
I1129
tp384
sS'01211'
p385
(I47
I371
tp386
sS'01210'
p387
(I240
I1097
tp388
sS'01217'
p389
(I104
I570
tp390
sS'01216'
p391
(I103
I569
tp392
sS'01215'
p393
(I220
I1009
tp394
sS'01214'
p395
(I132
I679
tp396
sS'01046'
p397
(I245
I1119
tp398
sS'01219'
p399
(I59
I414
tp400
sS'01218'
p401
(I77
I483
tp402
sS'42155'
p403
(I140
I711
tp404
sS'01047'
p405
(I179
I841
tp406
sS'01127'
p407
(I211
I961
tp408
sS'01166'
p409
(I225
I1031
tp410
sS'01042'
p411
(I249
I1127
tp412
sS'01043'
p413
(I218
I999
tp414
sS'01040'
p415
(I174
I819
tp416
sS'01041'
p417
(I158
I758
tp418
sS'01280'
p419
(I70
I444
tp420
sS'01281'
p421
(I61
I419
tp422
sS'01044'
p423
(I182
I848
tp424
sS'01045'
p425
(I195
I886
tp426
sS'42136'
p427
(I259
I1235
tp428
sS'01048'
p429
(I238
I1088
tp430
sS'01049'
p431
(I96
I541
tp432
sS'43543'
p433
(I29
I343
tp434
sS'01069'
p435
(I260
I1265
tp436
sS'42258'
p437
(I229
I1043
tp438
sS'01161'
p439
(I200
I900
tp440
sS'01237'
p441
(I236
I1082
tp442
sS'01165'
p443
(I248
I1125
tp444
sS'01164'
p445
(I116
I614
tp446
sS'01167'
p447
(I250
I1127
tp448
sS'01236'
p449
(I204
I903
tp450
sS'01208'
p451
(I123
I634
tp452
sS'01209'
p453
(I144
I722
tp454
sS'01204'
p455
(I125
I640
tp456
sS'01205'
p457
(I178
I840
tp458
sS'43396'
p459
(I33
I355
tp460
sS'42141'
p461
(I94
I533
tp462
sS'01169'
p463
(I149
I740
tp464
sS'01168'
p465
(I84
I502
tp466
sS'01202'
p467
(I95
I537
tp468
sS'01203'
p469
(I60
I417
tp470
sS'01090'
p471
(I247
I1125
tp472
sS'01160'
p473
(I156
I750
tp474
sS'43405'
p475
(I155
I748
tp476
sS'01079'
p477
(I30
I346
tp478
sS'01078'
p479
(I13
I273
tp480
sS'01077'
p481
(I43
I367
tp482
sS'01076'
p483
(I40
I361
tp484
sS'01074'
p485
(I181
I845
tp486
sS'01073'
p487
(I256
I1148
tp488
sS'01072'
p489
(I233
I1059
tp490
sS'01071'
p491
(I172
I814
tp492
sS'01070'
p493
(I261
I1269
tp494
sS'42304'
p495
(I46
I369
tp496
sS'01050'
p497
(I124
I636
tp498
sS'01239'
p499
(I183
I848
tp500
sS'01009'
p501
(I226
I1036
tp502
sS'01137'
p503
(I208
I936
tp504
sS'01278'
p505
(I71
I445
tp506
sS'01174'
p507
(I39
I359
tp508
sS'01175'
p509
(I18
I302
tp510
sS'01172'
p511
(I3
I206
tp512
sS'01173'
p513
(I113
I588
tp514
sS'01171'
p515
(I48
I373
tp516
sS'01271'
p517
(I187
I862
tp518
sS'01270'
p519
(I230
I1044
tp520
sS'01276'
p521
(I121
I629
tp522
sS'01275'
p523
(I49
I375
tp524
sS'01178'
p525
(I115
I598
tp526
sS'01179'
p527
(I99
I546
tp528
s.