(dp0
S'02019'
p1
(I38
I194
tp2
sS'02029'
p3
(I33
I176
tp4
sS'02028'
p5
(I46
I217
tp6
sS'02047'
p7
(I12
I100
tp8
sS'02046'
p9
(I20
I124
tp10
sS'02045'
p11
(I6
I78
tp12
sS'02044'
p13
(I2
I64
tp14
sS'02043'
p15
(I39
I201
tp16
sS'02012'
p17
(I23
I138
tp18
sS'02041'
p19
(I27
I147
tp20
sS'02039'
p21
(I41
I206
tp22
sS'02049'
p23
(I8
I86
tp24
sS'02048'
p25
(I4
I69
tp26
sS'02069'
p27
(I15
I112
tp28
sS'02068'
p29
(I3
I66
tp30
sS'02027'
p31
(I31
I158
tp32
sS'02026'
p33
(I48
I222
tp34
sS'02021'
p35
(I56
I257
tp36
sS'02006'
p37
(I34
I180
tp38
sS'02005'
p39
(I25
I145
tp40
sS'02004'
p41
(I49
I225
tp42
sS'02063'
p43
(I21
I124
tp44
sS'02008'
p45
(I13
I106
tp46
sS'02065'
p47
(I5
I74
tp48
sS'02064'
p49
(I10
I97
tp50
sS'02066'
p51
(I29
I152
tp52
sS'02022'
p53
(I62
I287
tp54
sS'02025'
p55
(I63
I290
tp56
sS'02003'
p57
(I16
I114
tp58
sS'02033'
p59
(I55
I256
tp60
sS'02024'
p61
(I44
I213
tp62
sS'02002'
p63
(I30
I158
tp64
sS'02075'
p65
(I43
I209
tp66
sS'02001'
p67
(I51
I238
tp68
sS'02050'
p69
(I18
I121
tp70
sS'02051'
p71
(I7
I78
tp72
sS'02052'
p73
(I9
I97
tp74
sS'02053'
p75
(I1
I63
tp76
sS'02054'
p77
(I14
I111
tp78
sS'02055'
p79
(I19
I122
tp80
sS'02007'
p81
(I57
I261
tp82
sS'02018'
p83
(I42
I208
tp84
sS'02020'
p85
(I37
I189
tp86
sS'02036'
p87
(I58
I271
tp88
sS'02037'
p89
(I47
I218
tp90
sS'02034'
p91
(I53
I245
tp92
sS'02035'
p93
(I64
I301
tp94
sS'02032'
p95
(I26
I145
tp96
sS'02023'
p97
(I35
I180
tp98
sS'02030'
p99
(I17
I119
tp100
sS'02031'
p101
(I59
I272
tp102
sS'02014'
p103
(I54
I247
tp104
sS'02073'
p105
(I32
I165
tp106
sS'02016'
p107
(I28
I148
tp108
sS'02017'
p109
(I24
I142
tp110
sS'02010'
p111
(I22
I134
tp112
sS'02038'
p113
(I45
I216
tp114
sS'02074'
p115
(I11
I99
tp116
sS'02013'
p117
(I36
I185
tp118
sS'02011'
p119
(I61
I277
tp120
sS'02015'
p121
(I50
I229
tp122
sS'02076'
p123
(I60
I273
tp124
sS'02009'
p125
(I52
I245
tp126
sS'02042'
p127
(I40
I204
tp128
s.