(dp0
S'43373'
p1
(I108
I692
tp2
sS'03048'
p3
(I221
I1002
tp4
sS'03049'
p5
(I37
I411
tp6
sS'03041'
p7
(I23
I367
tp8
sS'03042'
p9
(I28
I381
tp10
sS'03043'
p11
(I40
I424
tp12
sS'03044'
p13
(I98
I644
tp14
sS'03045'
p15
(I87
I598
tp16
sS'03046'
p17
(I236
I1052
tp18
sS'03047'
p19
(I90
I613
tp20
sS'03089'
p21
(I173
I851
tp22
sS'03134'
p23
(I240
I1068
tp24
sS'03135'
p25
(I254
I1121
tp26
sS'03136'
p27
(I202
I915
tp28
sS'03137'
p29
(I201
I914
tp30
sS'03130'
p31
(I169
I841
tp32
sS'03131'
p33
(I168
I838
tp34
sS'03132'
p35
(I56
I496
tp36
sS'03133'
p37
(I74
I555
tp38
sS'03139'
p39
(I258
I1128
tp40
sS'03857'
p41
(I121
I729
tp42
sS'03856'
p43
(I287
I1193
tp44
sS'03855'
p45
(I141
I777
tp46
sS'03854'
p47
(I296
I1228
tp48
sS'03853'
p49
(I340
I1334
tp50
sS'03852'
p51
(I329
I1307
tp52
sS'03998'
p53
(I294
I1219
tp54
sS'03850'
p55
(I135
I763
tp56
sS'03996'
p57
(I265
I1165
tp58
sS'03997'
p59
(I282
I1188
tp60
sS'03994'
p61
(I281
I1187
tp62
sS'03995'
p63
(I263
I1155
tp64
sS'03992'
p65
(I164
I822
tp66
sS'03993'
p67
(I218
I998
tp68
sS'03859'
p69
(I133
I759
tp70
sS'03858'
p71
(I342
I1336
tp72
sS'03070'
p73
(I33
I396
tp74
sS'03079'
p75
(I9
I320
tp76
sS'03926'
p77
(I273
I1179
tp78
sS'03925'
p79
(I137
I768
tp80
sS'03929'
p81
(I325
I1297
tp82
sS'03021'
p83
(I237
I1053
tp84
sS'42120'
p85
(I262
I1148
tp86
sS'03928'
p87
(I324
I1294
tp88
sS'03178'
p89
(I46
I459
tp90
sS'03179'
p91
(I103
I657
tp92
sS'03073'
p93
(I68
I540
tp94
sS'03072'
p95
(I99
I646
tp96
sS'03075'
p97
(I32
I395
tp98
sS'03077'
p99
(I85
I583
tp100
sS'03076'
p101
(I38
I412
tp102
sS'03170'
p103
(I132
I759
tp104
sS'03171'
p105
(I209
I944
tp106
sS'03172'
p107
(I80
I575
tp108
sS'03173'
p109
(I20
I361
tp110
sS'03174'
p111
(I105
I665
tp112
sS'03175'
p113
(I14
I334
tp114
sS'03176'
p115
(I31
I390
tp116
sS'03177'
p117
(I24
I369
tp118
sS'43544'
p119
(I212
I956
tp120
sS'43546'
p121
(I252
I1108
tp122
sS'03298'
p123
(I25
I375
tp124
sS'03297'
p125
(I119
I725
tp126
sS'03296'
p127
(I29
I381
tp128
sS'03290'
p129
(I72
I550
tp130
sS'03293'
p131
(I120
I727
tp132
sS'03109'
p133
(I77
I568
tp134
sS'03108'
p135
(I67
I539
tp136
sS'03105'
p137
(I4
I266
tp138
sS'03104'
p139
(I6
I275
tp140
sS'03100'
p141
(I13
I334
tp142
sS'42267'
p143
(I62
I517
tp144
sS'42266'
p145
(I102
I652
tp146
sS'42285'
p147
(I238
I1053
tp148
sS'42284'
p149
(I317
I1281
tp150
sS'42286'
p151
(I7
I302
tp152
sS'03206'
p153
(I304
I1263
tp154
sS'03205'
p155
(I290
I1212
tp156
sS'03201'
p157
(I177
I869
tp158
sS'03209'
p159
(I315
I1280
tp160
sS'03967'
p161
(I347
I1366
tp162
sS'03197'
p163
(I48
I469
tp164
sS'03194'
p165
(I231
I1032
tp166
sS'03195'
p167
(I116
I719
tp168
sS'03192'
p169
(I194
I904
tp170
sS'03193'
p171
(I241
I1070
tp172
sS'03961'
p173
(I153
I798
tp174
sS'03960'
p175
(I152
I798
tp176
sS'03198'
p177
(I49
I475
tp178
sS'03199'
p179
(I69
I540
tp180
sS'03808'
p181
(I350
I1376
tp182
sS'03809'
p183
(I356
I1400
tp184
sS'03805'
p185
(I359
I1412
tp186
sS'03806'
p187
(I181
I873
tp188
sS'03800'
p189
(I160
I810
tp190
sS'03801'
p191
(I270
I1174
tp192
sS'03802'
p193
(I348
I1371
tp194
sS'03803'
p195
(I179
I870
tp196
sS'03011'
p197
(I154
I799
tp198
sS'42119'
p199
(I299
I1243
tp200
sS'03704'
p201
(I146
I789
tp202
sS'03141'
p203
(I118
I721
tp204
sS'03140'
p205
(I244
I1075
tp206
sS'03143'
p207
(I107
I682
tp208
sS'03142'
p209
(I96
I640
tp210
sS'03145'
p211
(I136
I767
tp212
sS'03144'
p213
(I142
I779
tp214
sS'03147'
p215
(I109
I694
tp216
sS'03841'
p217
(I128
I749
tp218
sS'03842'
p219
(I284
I1191
tp220
sS'33869'
p221
(I326
I1297
tp222
sS'33868'
p223
(I316
I1281
tp224
sS'03090'
p225
(I159
I810
tp226
sS'03016'
p227
(I148
I793
tp228
sS'33863'
p229
(I338
I1330
tp230
sS'33862'
p231
(I334
I1315
tp232
sS'33865'
p233
(I308
I1265
tp234
sS'33864'
p235
(I295
I1220
tp236
sS'33867'
p237
(I336
I1328
tp238
sS'03096'
p239
(I111
I708
tp240
sS'03246'
p241
(I297
I1230
tp242
sS'03245'
p243
(I272
I1177
tp244
sS'03840'
p245
(I227
I1020
tp246
sS'03092'
p247
(I1
I237
tp248
sS'03091'
p249
(I2
I241
tp250
sS'03843'
p251
(I335
I1318
tp252
sS'03844'
p253
(I268
I1171
tp254
sS'03845'
p255
(I162
I813
tp256
sS'03846'
p257
(I199
I910
tp258
sS'03849'
p259
(I343
I1344
tp260
sS'03099'
p261
(I10
I328
tp262
sS'03098'
p263
(I43
I454
tp264
sS'03949'
p265
(I138
I769
tp266
sS'03948'
p267
(I361
I1417
tp268
sS'03837'
p269
(I357
I1400
tp270
sS'03938'
p271
(I362
I1424
tp272
sS'03830'
p273
(I309
I1267
tp274
sS'03832'
p275
(I139
I773
tp276
sS'03934'
p277
(I95
I636
tp278
sS'42150'
p279
(I314
I1277
tp280
sS'03936'
p281
(I151
I795
tp282
sS'03937'
p283
(I301
I1252
tp284
sS'03839'
p285
(I247
I1083
tp286
sS'03838'
p287
(I318
I1282
tp288
sS'03001'
p289
(I352
I1392
tp290
sS'03169'
p291
(I76
I564
tp292
sS'03168'
p293
(I93
I621
tp294
sS'03062'
p295
(I66
I535
tp296
sS'03061'
p297
(I59
I503
tp298
sS'03066'
p299
(I35
I402
tp300
sS'03067'
p301
(I22
I366
tp302
sS'03163'
p303
(I255
I1121
tp304
sS'03068'
p305
(I110
I695
tp306
sS'03069'
p307
(I51
I478
tp308
sS'03009'
p309
(I82
I579
tp310
sS'03690'
p311
(I233
I1038
tp312
sS'03693'
p313
(I149
I794
tp314
sS'03694'
p315
(I226
I1018
tp316
sS'03696'
p317
(I143
I782
tp318
sS'43550'
p319
(I259
I1140
tp320
sS'43004'
p321
(I257
I1127
tp322
sS'43006'
p323
(I219
I998
tp324
sS'43007'
p325
(I230
I1028
tp326
sS'43008'
p327
(I41
I434
tp328
sS'43417'
p329
(I89
I611
tp330
sS'03289'
p331
(I144
I784
tp332
sS'03286'
p333
(I11
I328
tp334
sS'03287'
p335
(I57
I498
tp336
sS'03282'
p337
(I16
I342
tp338
sS'03283'
p339
(I3
I259
tp340
sS'03280'
p341
(I166
I836
tp342
sS'03118'
p343
(I60
I504
tp344
sS'03119'
p345
(I84
I582
tp346
sS'03116'
p347
(I104
I663
tp348
sS'03117'
p349
(I81
I578
tp350
sS'03114'
p351
(I34
I400
tp352
sS'03115'
p353
(I156
I803
tp354
sS'03112'
p355
(I45
I458
tp356
sS'42278'
p357
(I97
I643
tp358
sS'42279'
p359
(I70
I542
tp360
sS'43075'
p361
(I36
I404
tp362
sS'03233'
p363
(I243
I1071
tp364
sS'03230'
p365
(I53
I480
tp366
sS'03236'
p367
(I207
I939
tp368
sS'03235'
p369
(I196
I907
tp370
sS'03238'
p371
(I55
I488
tp372
sS'03870'
p373
(I248
I1089
tp374
sS'03901'
p375
(I291
I1212
tp376
sS'03900'
p377
(I174
I854
tp378
sS'03939'
p379
(I124
I742
tp380
sS'03966'
p381
(I289
I1204
tp382
sS'03304'
p383
(I185
I885
tp384
sS'03303'
p385
(I117
I720
tp386
sS'03965'
p387
(I279
I1186
tp388
sS'03301'
p389
(I39
I421
tp390
sS'03302'
p391
(I310
I1268
tp392
sS'03964'
p393
(I307
I1265
tp394
sS'03935'
p395
(I198
I907
tp396
sS'03963'
p397
(I130
I753
tp398
sS'03190'
p399
(I277
I1183
tp400
sS'03930'
p401
(I195
I904
tp402
sS'03191'
p403
(I204
I924
tp404
sS'03152'
p405
(I213
I957
tp406
sS'03153'
p407
(I210
I945
tp408
sS'03150'
p409
(I27
I380
tp410
sS'03151'
p411
(I30
I387
tp412
sS'03156'
p413
(I188
I892
tp414
sS'03157'
p415
(I180
I873
tp416
sS'03154'
p417
(I191
I903
tp418
sS'03158'
p419
(I71
I549
tp420
sS'03159'
p421
(I73
I553
tp422
sS'03019'
p423
(I300
I1252
tp424
sS'03013'
p425
(I189
I896
tp426
sS'33873'
p427
(I306
I1263
tp428
sS'33870'
p429
(I311
I1268
tp430
sS'33871'
p431
(I313
I1277
tp432
sS'03017'
p433
(I239
I1062
tp434
sS'33877'
p435
(I339
I1332
tp436
sS'03015'
p437
(I129
I751
tp438
sS'03014'
p439
(I242
I1071
tp440
sS'03968'
p441
(I200
I911
tp442
sS'43529'
p443
(I251
I1105
tp444
sS'03711'
p445
(I126
I743
tp446
sS'33876'
p447
(I172
I846
tp448
sS'43523'
p449
(I269
I1171
tp450
sS'03274'
p451
(I61
I505
tp452
sS'03279'
p453
(I8
I313
tp454
sS'03278'
p455
(I17
I349
tp456
sS'03851'
p457
(I285
I1191
tp458
sS'03084'
p459
(I21
I365
tp460
sS'03085'
p461
(I52
I478
tp462
sS'03999'
p463
(I346
I1364
tp464
sS'03081'
p465
(I18
I357
tp466
sS'03082'
p467
(I44
I455
tp468
sS'03083'
p469
(I47
I460
tp470
sS'33875'
p471
(I175
I867
tp472
sS'03990'
p473
(I178
I869
tp474
sS'03991'
p475
(I114
I712
tp476
sS'03826'
p477
(I341
I1336
tp478
sS'03827'
p479
(I354
I1395
tp480
sS'03824'
p481
(I298
I1242
tp482
sS'03825'
p483
(I183
I874
tp484
sS'03822'
p485
(I215
I970
tp486
sS'03823'
p487
(I122
I735
tp488
sS'03820'
p489
(I264
I1159
tp490
sS'03821'
p491
(I358
I1409
tp492
sS'03941'
p493
(I330
I1308
tp494
sS'03940'
p495
(I275
I1180
tp496
sS'03943'
p497
(I355
I1395
tp498
sS'03942'
p499
(I186
I888
tp500
sS'03945'
p501
(I327
I1301
tp502
sS'03944'
p503
(I214
I959
tp504
sS'03947'
p505
(I303
I1262
tp506
sS'03946'
p507
(I229
I1026
tp508
sS'33866'
p509
(I331
I1308
tp510
sS'03059'
p511
(I134
I761
tp512
sS'03055'
p513
(I217
I976
tp514
sS'03054'
p515
(I184
I876
tp516
sS'03053'
p517
(I140
I777
tp518
sS'03052'
p519
(I26
I379
tp520
sS'03051'
p521
(I63
I519
tp522
sS'03050'
p523
(I123
I741
tp524
sS'03689'
p525
(I260
I1143
tp526
sS'03682'
p527
(I86
I590
tp528
sS'03681'
p529
(I223
I1005
tp530
sS'03686'
p531
(I232
I1034
tp532
sS'03685'
p533
(I234
I1051
tp534
sS'43408'
p535
(I92
I619
tp536
sS'43585'
p537
(I245
I1077
tp538
sS'03129'
p539
(I42
I448
tp540
sS'03128'
p541
(I65
I532
tp542
sS'03122'
p543
(I94
I636
tp544
sS'03121'
p545
(I15
I338
tp546
sS'03120'
p547
(I112
I711
tp548
sS'03127'
p549
(I19
I359
tp550
sS'33872'
p551
(I333
I1314
tp552
sS'03228'
p553
(I216
I974
tp554
sS'03229'
p555
(I50
I477
tp556
sS'03012'
p557
(I176
I868
tp558
sS'03224'
p559
(I224
I1015
tp560
sS'03225'
p561
(I286
I1193
tp562
sS'03226'
p563
(I147
I791
tp564
sS'03227'
p565
(I192
I903
tp566
sS'03220'
p567
(I305
I1263
tp568
sS'03221'
p569
(I276
I1182
tp570
sS'03222'
p571
(I225
I1016
tp572
sS'03093'
p573
(I5
I270
tp574
sS'03010'
p575
(I100
I651
tp576
sS'03989'
p577
(I171
I844
tp578
sS'03988'
p579
(I163
I819
tp580
sS'03985'
p581
(I182
I873
tp582
sS'03984'
p583
(I206
I931
tp584
sS'03987'
p585
(I161
I812
tp586
sS'03986'
p587
(I167
I836
tp588
sS'03981'
p589
(I190
I901
tp590
sS'03980'
p591
(I345
I1361
tp592
sS'03983'
p593
(I193
I903
tp594
sS'03982'
p595
(I157
I807
tp596
sS'03868'
p597
(I187
I889
tp598
sS'03869'
p599
(I360
I1416
tp600
sS'33874'
p601
(I208
I942
tp602
sS'03860'
p603
(I250
I1105
tp604
sS'03861'
p605
(I323
I1294
tp606
sS'03867'
p607
(I328
I1303
tp608
sS'03864'
p609
(I197
I907
tp610
sS'03913'
p611
(I320
I1287
tp612
sS'44074'
p613
(I54
I480
tp614
sS'03005'
p615
(I64
I527
tp616
sS'03007'
p617
(I170
I843
tp618
sS'03712'
p619
(I235
I1051
tp620
sS'03002'
p621
(I79
I571
tp622
sS'03003'
p623
(I78
I569
tp624
sS'03167'
p625
(I150
I795
tp626
sS'03166'
p627
(I125
I743
tp628
sS'03165'
p629
(I155
I802
tp630
sS'03164'
p631
(I222
I1005
tp632
sS'03008'
p633
(I83
I580
tp634
sS'03162'
p635
(I75
I561
tp636
sS'03161'
p637
(I106
I681
tp638
sS'03160'
p639
(I58
I499
tp640
sS'03186'
p641
(I249
I1091
tp642
sS'43535'
p643
(I113
I711
tp644
sS'43536'
p645
(I256
I1121
tp646
sS'43537'
p647
(I283
I1189
tp648
sS'43539'
p649
(I278
I1185
tp650
sS'43432'
p651
(I115
I712
tp652
sS'03265'
p653
(I131
I754
tp654
sS'03267'
p655
(I145
I788
tp656
sS'03268'
p657
(I88
I601
tp658
sS'03269'
p659
(I101
I651
tp660
sS'42316'
p661
(I12
I333
tp662
sS'03215'
p663
(I271
I1176
tp664
sS'03214'
p665
(I267
I1170
tp666
sS'03217'
p667
(I322
I1294
tp668
sS'03216'
p669
(I319
I1284
tp670
sS'03211'
p671
(I246
I1083
tp672
sS'03210'
p673
(I228
I1021
tp674
sS'03213'
p675
(I321
I1292
tp676
sS'03212'
p677
(I274
I1180
tp678
sS'03819'
p679
(I353
I1394
tp680
sS'03185'
p681
(I220
I1000
tp682
sS'03184'
p683
(I293
I1215
tp684
sS'03187'
p685
(I205
I925
tp686
sS'03951'
p687
(I266
I1168
tp688
sS'03181'
p689
(I261
I1146
tp690
sS'03189'
p691
(I253
I1109
tp692
sS'03188'
p693
(I203
I916
tp694
sS'03813'
p695
(I158
I809
tp696
sS'03812'
p697
(I302
I1257
tp698
sS'03959'
p699
(I91
I617
tp700
sS'03817'
p701
(I349
I1374
tp702
sS'03816'
p703
(I292
I1213
tp704
sS'03815'
p705
(I165
I830
tp706
sS'03814'
p707
(I344
I1345
tp708
sS'03952'
p709
(I280
I1187
tp710
sS'03953'
p711
(I127
I746
tp712
sS'03950'
p713
(I337
I1330
tp714
sS'03818'
p715
(I312
I1272
tp716
sS'03956'
p717
(I288
I1193
tp718
sS'03957'
p719
(I351
I1382
tp720
sS'03954'
p721
(I332
I1313
tp722
sS'03955'
p723
(I211
I952
tp724
s.