(dp0
S'04560'
p1
(I138
I589
tp2
sS'42289'
p3
(I71
I393
tp4
sS'04546'
p5
(I125
I550
tp6
sS'04513'
p7
(I177
I736
tp8
sS'04018'
p9
(I44
I324
tp10
sS'04648'
p11
(I186
I751
tp12
sS'43019'
p13
(I5
I202
tp14
sS'04643'
p15
(I111
I517
tp16
sS'04013'
p17
(I15
I241
tp18
sS'04641'
p19
(I31
I290
tp20
sS'04011'
p21
(I57
I359
tp22
sS'04016'
p23
(I108
I509
tp24
sS'04017'
p25
(I120
I539
tp26
sS'04014'
p27
(I25
I265
tp28
sS'04644'
p29
(I122
I545
tp30
sS'04653'
p31
(I172
I727
tp32
sS'04001'
p33
(I200
I783
tp34
sS'04367'
p35
(I39
I309
tp36
sS'04142'
p37
(I27
I274
tp38
sS'04027'
p39
(I36
I299
tp40
sS'04026'
p41
(I94
I452
tp42
sS'04025'
p43
(I114
I527
tp44
sS'04657'
p45
(I215
I863
tp46
sS'04023'
p47
(I68
I389
tp48
sS'04022'
p49
(I52
I348
tp50
sS'04021'
p51
(I18
I250
tp52
sS'04020'
p53
(I55
I350
tp54
sS'04556'
p55
(I159
I697
tp56
sS'04554'
p57
(I135
I587
tp58
sS'04658'
p59
(I207
I803
tp60
sS'04659'
p61
(I196
I773
tp62
sS'04029'
p63
(I87
I425
tp64
sS'04028'
p65
(I2
I196
tp66
sS'04706'
p67
(I54
I348
tp68
sS'04707'
p69
(I76
I409
tp70
sS'04704'
p71
(I145
I634
tp72
sS'04705'
p73
(I42
I321
tp74
sS'04702'
p75
(I214
I862
tp76
sS'04703'
p77
(I86
I423
tp78
sS'04700'
p79
(I118
I534
tp80
sS'04701'
p81
(I218
I900
tp82
sS'04144'
p83
(I3
I201
tp84
sS'04145'
p85
(I126
I551
tp86
sS'04146'
p87
(I166
I714
tp88
sS'04141'
p89
(I45
I324
tp90
sS'04708'
p91
(I28
I278
tp92
sS'04143'
p93
(I34
I293
tp94
sS'04645'
p95
(I184
I749
tp96
sS'04594'
p97
(I187
I753
tp98
sS'04649'
p99
(I175
I734
tp100
sS'42193'
p101
(I21
I255
tp102
sS'42192'
p103
(I22
I258
tp104
sS'42116'
p105
(I16
I244
tp106
sS'04055'
p107
(I155
I686
tp108
sS'04548'
p109
(I133
I582
tp110
sS'04620'
p111
(I14
I240
tp112
sS'04520'
p113
(I198
I776
tp114
sS'04034'
p115
(I80
I418
tp116
sS'04624'
p117
(I4
I202
tp118
sS'04627'
p119
(I6
I206
tp120
sS'04626'
p121
(I62
I378
tp122
sS'04038'
p123
(I104
I495
tp124
sS'04541'
p125
(I168
I720
tp126
sS'04542'
p127
(I154
I680
tp128
sS'04543'
p129
(I101
I477
tp130
sS'04544'
p131
(I179
I742
tp132
sS'04545'
p133
(I82
I421
tp134
sS'43598'
p135
(I48
I341
tp136
sS'43215'
p137
(I56
I351
tp138
sS'43214'
p139
(I81
I418
tp140
sS'04642'
p141
(I77
I410
tp142
sS'04133'
p143
(I105
I496
tp144
sS'04135'
p145
(I35
I296
tp146
sS'43355'
p147
(I26
I271
tp148
sS'04640'
p149
(I63
I380
tp150
sS'04646'
p151
(I194
I764
tp152
sS'04058'
p153
(I92
I445
tp154
sS'04015'
p155
(I139
I599
tp156
sS'04633'
p157
(I7
I208
tp158
sS'04630'
p159
(I100
I471
tp160
sS'04631'
p161
(I9
I217
tp162
sS'04636'
p163
(I12
I237
tp164
sS'04634'
p165
(I1
I182
tp166
sS'04635'
p167
(I37
I299
tp168
sS'04638'
p169
(I30
I290
tp170
sS'04639'
p171
(I140
I603
tp172
sS'04044'
p173
(I131
I568
tp174
sS'04128'
p175
(I41
I317
tp176
sS'04539'
p177
(I107
I508
tp178
sS'04042'
p179
(I93
I449
tp180
sS'04534'
p181
(I185
I750
tp182
sS'04120'
p183
(I103
I489
tp184
sS'04536'
p185
(I153
I680
tp186
sS'04531'
p187
(I85
I423
tp188
sS'04530'
p189
(I40
I314
tp190
sS'04532'
p191
(I47
I338
tp192
sS'43329'
p193
(I65
I382
tp194
sS'04047'
p195
(I189
I760
tp196
sS'42137'
p197
(I151
I659
tp198
sS'42138'
p199
(I32
I291
tp200
sS'04030'
p201
(I148
I645
tp202
sS'04114'
p203
(I69
I389
tp204
sS'04609'
p205
(I181
I744
tp206
sS'04031'
p207
(I117
I532
tp208
sS'44005'
p209
(I91
I438
tp210
sS'04606'
p211
(I197
I775
tp212
sS'04602'
p213
(I129
I564
tp214
sS'04601'
p215
(I136
I587
tp216
sS'04600'
p217
(I29
I279
tp218
sS'04687'
p219
(I90
I430
tp220
sS'04686'
p221
(I38
I304
tp222
sS'04685'
p223
(I78
I411
tp224
sS'04684'
p225
(I142
I609
tp226
sS'04683'
p227
(I150
I654
tp228
sS'04053'
p229
(I83
I422
tp230
sS'04528'
p231
(I49
I342
tp232
sS'04529'
p233
(I53
I348
tp234
sS'04689'
p235
(I88
I428
tp236
sS'04688'
p237
(I73
I396
tp238
sS'04677'
p239
(I152
I670
tp240
sS'04002'
p241
(I174
I730
tp242
sS'42230'
p243
(I157
I687
tp244
sS'42231'
p245
(I51
I346
tp246
sS'04037'
p247
(I110
I516
tp248
sS'43331'
p249
(I20
I253
tp250
sS'04629'
p251
(I178
I737
tp252
sS'04628'
p253
(I192
I762
tp254
sS'04618'
p255
(I60
I375
tp256
sS'04610'
p257
(I203
I788
tp258
sS'04611'
p259
(I160
I698
tp260
sS'04693'
p261
(I169
I722
tp262
sS'04613'
p263
(I134
I586
tp264
sS'04614'
p265
(I112
I524
tp266
sS'04615'
p267
(I190
I761
tp268
sS'04617'
p269
(I132
I578
tp270
sS'04690'
p271
(I58
I362
tp272
sS'04691'
p273
(I188
I759
tp274
sS'04692'
p275
(I158
I696
tp276
sS'04518'
p277
(I59
I374
tp278
sS'04694'
p279
(I149
I650
tp280
sS'04695'
p281
(I109
I511
tp282
sS'04696'
p283
(I67
I385
tp284
sS'04697'
p285
(I19
I253
tp286
sS'04698'
p287
(I106
I506
tp288
sS'04699'
p289
(I144
I632
tp290
sS'04511'
p291
(I46
I336
tp292
sS'04510'
p293
(I43
I322
tp294
sS'04517'
p295
(I64
I381
tp296
sS'04516'
p297
(I123
I547
tp298
sS'04515'
p299
(I115
I530
tp300
sS'04514'
p301
(I95
I459
tp302
sS'04593'
p303
(I165
I712
tp304
sS'04592'
p305
(I216
I883
tp306
sS'04591'
p307
(I193
I764
tp308
sS'04590'
p309
(I180
I743
tp310
sS'04595'
p311
(I146
I642
tp312
sS'04549'
p313
(I170
I723
tp314
sS'42158'
p315
(I24
I263
tp316
sS'42151'
p317
(I99
I467
tp318
sS'42153'
p319
(I13
I237
tp320
sS'43021'
p321
(I50
I343
tp322
sS'04550'
p323
(I202
I787
tp324
sS'42157'
p325
(I23
I260
tp326
sS'04654'
p327
(I208
I816
tp328
sS'04506'
p329
(I79
I413
tp330
sS'04501'
p331
(I167
I716
tp332
sS'04502'
p333
(I137
I588
tp334
sS'04655'
p335
(I212
I834
tp336
sS'43020'
p337
(I8
I213
tp338
sS'04669'
p339
(I141
I606
tp340
sS'04668'
p341
(I204
I795
tp342
sS'04664'
p343
(I211
I826
tp344
sS'04665'
p345
(I206
I798
tp346
sS'04650'
p347
(I98
I465
tp348
sS'04667'
p349
(I209
I818
tp350
sS'04666'
p351
(I183
I748
tp352
sS'04661'
p353
(I213
I861
tp354
sS'04660'
p355
(I217
I891
tp356
sS'04663'
p357
(I219
I904
tp358
sS'04073'
p359
(I156
I686
tp360
sS'43017'
p361
(I102
I478
tp362
sS'43016'
p363
(I116
I530
tp364
sS'43015'
p365
(I143
I611
tp366
sS'04656'
p367
(I201
I785
tp368
sS'04588'
p369
(I113
I526
tp370
sS'04559'
p371
(I124
I547
tp372
sS'04584'
p373
(I66
I385
tp374
sS'04585'
p375
(I191
I762
tp376
sS'04586'
p377
(I119
I537
tp378
sS'04587'
p379
(I127
I562
tp380
sS'04581'
p381
(I84
I422
tp382
sS'04582'
p383
(I72
I394
tp384
sS'04583'
p385
(I74
I406
tp386
sS'42140'
p387
(I33
I291
tp388
sS'04662'
p389
(I161
I702
tp390
sS'04612'
p391
(I171
I725
tp392
sS'04570'
p393
(I173
I728
tp394
sS'04573'
p395
(I195
I772
tp396
sS'04572'
p397
(I205
I797
tp398
sS'04575'
p399
(I162
I705
tp400
sS'04574'
p401
(I164
I706
tp402
sS'04576'
p403
(I176
I735
tp404
sS'04551'
p405
(I199
I781
tp406
sS'04678'
p407
(I96
I461
tp408
sS'04679'
p409
(I89
I429
tp410
sS'04676'
p411
(I11
I223
tp412
sS'42256'
p413
(I128
I563
tp414
sS'04674'
p415
(I75
I407
tp416
sS'04675'
p417
(I17
I245
tp418
sS'04673'
p419
(I130
I565
tp420
sS'04670'
p421
(I121
I540
tp422
sS'04589'
p423
(I163
I705
tp424
sS'42307'
p425
(I147
I643
tp426
sS'42171'
p427
(I70
I389
tp428
sS'42309'
p429
(I97
I463
tp430
sS'04651'
p431
(I182
I746
tp432
sS'42178'
p433
(I10
I217
tp434
sS'04060'
p435
(I61
I378
tp436
sS'04652'
p437
(I210
I824
tp438
s.