(dp0
S'05309'
p1
(I66
I489
tp2
sS'05308'
p3
(I310
I1366
tp4
sS'05301'
p5
(I356
I1570
tp6
sS'05300'
p7
(I381
I1751
tp8
sS'05303'
p9
(I336
I1487
tp10
sS'05302'
p11
(I313
I1376
tp12
sS'05305'
p13
(I174
I841
tp14
sS'05304'
p15
(I322
I1409
tp16
sS'05307'
p17
(I283
I1269
tp18
sS'05306'
p19
(I239
I1067
tp20
sS'05158'
p21
(I52
I439
tp22
sS'05159'
p23
(I5
I278
tp24
sS'05019'
p25
(I339
I1507
tp26
sS'05151'
p27
(I114
I635
tp28
sS'05648'
p29
(I8
I295
tp30
sS'05649'
p31
(I7
I294
tp32
sS'05138'
p33
(I118
I642
tp34
sS'05139'
p35
(I365
I1604
tp36
sS'05136'
p37
(I189
I900
tp38
sS'05641'
p39
(I159
I804
tp40
sS'05134'
p41
(I199
I928
tp42
sS'05643'
p43
(I35
I393
tp44
sS'05644'
p45
(I6
I278
tp46
sS'05133'
p47
(I292
I1296
tp48
sS'05646'
p49
(I16
I326
tp50
sS'05647'
p51
(I44
I419
tp52
sS'05002'
p53
(I345
I1539
tp54
sS'05003'
p55
(I280
I1263
tp56
sS'05000'
p57
(I92
I576
tp58
sS'05001'
p59
(I289
I1294
tp60
sS'05006'
p61
(I307
I1357
tp62
sS'05007'
p63
(I342
I1533
tp64
sS'05004'
p65
(I237
I1055
tp66
sS'05005'
p67
(I238
I1055
tp68
sS'05008'
p69
(I273
I1210
tp70
sS'05009'
p71
(I233
I1046
tp72
sS'05734'
p73
(I316
I1398
tp74
sS'05735'
p75
(I309
I1360
tp76
sS'05736'
p77
(I161
I809
tp78
sS'05737'
p79
(I216
I981
tp80
sS'05730'
p81
(I63
I482
tp82
sS'05732'
p83
(I143
I739
tp84
sS'05733'
p85
(I95
I593
tp86
sS'05738'
p87
(I49
I429
tp88
sS'05739'
p89
(I23
I351
tp90
sS'05183'
p91
(I275
I1227
tp92
sS'05182'
p93
(I132
I713
tp94
sS'05181'
p95
(I228
I1026
tp96
sS'05180'
p97
(I212
I968
tp98
sS'05187'
p99
(I84
I541
tp100
sS'05186'
p101
(I27
I378
tp102
sS'05185'
p103
(I53
I440
tp104
sS'05184'
p105
(I274
I1223
tp106
sS'05220'
p107
(I47
I426
tp108
sS'05188'
p109
(I177
I845
tp110
sS'05631'
p111
(I125
I694
tp112
sS'05227'
p113
(I54
I441
tp114
sS'05632'
p115
(I40
I415
tp116
sS'05236'
p117
(I354
I1565
tp118
sS'05356'
p119
(I389
I1803
tp120
sS'05357'
p121
(I380
I1724
tp122
sS'05354'
p123
(I258
I1117
tp124
sS'05352'
p125
(I355
I1569
tp126
sS'05353'
p127
(I226
I1016
tp128
sS'05351'
p129
(I343
I1537
tp130
sS'05358'
p131
(I227
I1021
tp132
sS'05359'
p133
(I301
I1333
tp134
sS'43390'
p135
(I304
I1349
tp136
sS'43391'
p137
(I215
I977
tp138
sS'05079'
p139
(I241
I1070
tp140
sS'05078'
p141
(I210
I957
tp142
sS'05073'
p143
(I127
I697
tp144
sS'05072'
p145
(I130
I707
tp146
sS'05071'
p147
(I96
I597
tp148
sS'05070'
p149
(I186
I889
tp150
sS'05077'
p151
(I271
I1203
tp152
sS'05076'
p153
(I344
I1538
tp154
sS'05075'
p155
(I330
I1450
tp156
sS'05074'
p157
(I83
I534
tp158
sS'05671'
p159
(I140
I732
tp160
sS'05670'
p161
(I323
I1409
tp162
sS'05673'
p163
(I374
I1707
tp164
sS'05672'
p165
(I203
I935
tp166
sS'05675'
p167
(I372
I1697
tp168
sS'05674'
p169
(I384
I1760
tp170
sS'05677'
p171
(I319
I1401
tp172
sS'05676'
p173
(I261
I1144
tp174
sS'05679'
p175
(I117
I641
tp176
sS'05678'
p177
(I119
I642
tp178
sS'05172'
p179
(I182
I860
tp180
sS'05173'
p181
(I131
I713
tp182
sS'05170'
p183
(I362
I1594
tp184
sS'05171'
p185
(I164
I819
tp186
sS'05176'
p187
(I223
I1000
tp188
sS'05177'
p189
(I165
I820
tp190
sS'05174'
p191
(I158
I804
tp192
sS'05175'
p193
(I260
I1135
tp194
sS'05178'
p195
(I221
I995
tp196
sS'05179'
p197
(I185
I885
tp198
sS'05318'
p199
(I107
I624
tp200
sS'05319'
p201
(I168
I825
tp202
sS'05709'
p203
(I32
I390
tp204
sS'05708'
p205
(I86
I543
tp206
sS'05705'
p207
(I109
I624
tp208
sS'05704'
p209
(I97
I599
tp210
sS'05310'
p211
(I80
I525
tp212
sS'05311'
p213
(I272
I1205
tp214
sS'05316'
p215
(I58
I466
tp216
sS'05317'
p217
(I243
I1081
tp218
sS'05703'
p219
(I160
I807
tp220
sS'05702'
p221
(I224
I1005
tp222
sS'05118'
p223
(I38
I404
tp224
sS'05292'
p225
(I383
I1756
tp226
sS'05149'
p227
(I244
I1085
tp228
sS'05148'
p229
(I149
I774
tp230
sS'05068'
p231
(I264
I1159
tp232
sS'05069'
p233
(I255
I1109
tp234
sS'05109'
p235
(I302
I1336
tp236
sS'05108'
p237
(I115
I636
tp238
sS'05103'
p239
(I329
I1439
tp240
sS'05102'
p241
(I312
I1372
tp242
sS'05101'
p243
(I369
I1656
tp244
sS'05100'
p245
(I306
I1351
tp246
sS'05107'
p247
(I128
I697
tp248
sS'05106'
p249
(I148
I767
tp250
sS'05105'
p251
(I87
I547
tp252
sS'05104'
p253
(I282
I1264
tp254
sS'05039'
p255
(I18
I331
tp256
sS'05038'
p257
(I265
I1162
tp258
sS'05037'
p259
(I270
I1192
tp260
sS'05036'
p261
(I298
I1317
tp262
sS'05035'
p263
(I359
I1588
tp264
sS'05034'
p265
(I326
I1426
tp266
sS'05033'
p267
(I166
I822
tp268
sS'05032'
p269
(I188
I896
tp270
sS'05031'
p271
(I236
I1051
tp272
sS'05030'
p273
(I337
I1489
tp274
sS'05741'
p275
(I162
I817
tp276
sS'05740'
p277
(I88
I548
tp278
sS'05215'
p279
(I76
I508
tp280
sS'05742'
p281
(I240
I1069
tp282
sS'05745'
p283
(I328
I1433
tp284
sS'05744'
p285
(I349
I1543
tp286
sS'05747'
p287
(I14
I325
tp288
sS'05746'
p289
(I19
I336
tp290
sS'05749'
p291
(I60
I471
tp292
sS'05748'
p293
(I65
I488
tp294
sS'05219'
p295
(I51
I438
tp296
sS'05628'
p297
(I34
I392
tp298
sS'05629'
p299
(I45
I420
tp300
sS'05194'
p301
(I170
I832
tp302
sS'05195'
p303
(I229
I1029
tp304
sS'05196'
p305
(I208
I955
tp306
sS'05625'
p307
(I43
I419
tp308
sS'05190'
p309
(I256
I1111
tp310
sS'05191'
p311
(I120
I646
tp312
sS'05192'
p313
(I91
I571
tp314
sS'05193'
p315
(I129
I705
tp316
sS'05216'
p317
(I173
I841
tp318
sS'05743'
p319
(I251
I1098
tp320
sS'05363'
p321
(I24
I371
tp322
sS'05362'
p323
(I371
I1683
tp324
sS'05361'
p325
(I361
I1592
tp326
sS'05693'
p327
(I340
I1508
tp328
sS'05692'
p329
(I324
I1420
tp330
sS'05691'
p331
(I334
I1478
tp332
sS'05690'
p333
(I335
I1484
tp334
sS'05697'
p335
(I62
I482
tp336
sS'05696'
p337
(I68
I494
tp338
sS'05695'
p339
(I193
I910
tp340
sS'05694'
p341
(I153
I781
tp342
sS'05699'
p343
(I367
I1632
tp344
sS'05698'
p345
(I382
I1754
tp346
sS'05626'
p347
(I36
I402
tp348
sS'05627'
p349
(I70
I498
tp350
sS'05624'
p351
(I13
I325
tp352
sS'05622'
p353
(I121
I661
tp354
sS'05623'
p355
(I37
I403
tp356
sS'05621'
p357
(I77
I513
tp358
sS'05662'
p359
(I4
I255
tp360
sS'05663'
p361
(I3
I223
tp362
sS'05661'
p363
(I184
I881
tp364
sS'05666'
p365
(I267
I1172
tp366
sS'05667'
p367
(I266
I1166
tp368
sS'05664'
p369
(I2
I207
tp370
sS'05665'
p371
(I218
I985
tp372
sS'05668'
p373
(I297
I1307
tp374
sS'05669'
p375
(I332
I1463
tp376
sS'05099'
p377
(I179
I849
tp378
sS'05098'
p379
(I204
I939
tp380
sS'05091'
p381
(I352
I1548
tp382
sS'05090'
p383
(I136
I723
tp384
sS'05093'
p385
(I278
I1243
tp386
sS'05092'
p387
(I353
I1552
tp388
sS'05095'
p389
(I268
I1173
tp390
sS'05094'
p391
(I305
I1350
tp392
sS'05097'
p393
(I220
I994
tp394
sS'05096'
p395
(I111
I625
tp396
sS'05064'
p397
(I28
I379
tp398
sS'05065'
p399
(I15
I326
tp400
sS'05066'
p401
(I252
I1099
tp402
sS'05067'
p403
(I341
I1527
tp404
sS'05060'
p405
(I116
I638
tp406
sS'05061'
p407
(I104
I617
tp408
sS'05062'
p409
(I10
I309
tp410
sS'05063'
p411
(I57
I465
tp412
sS'05147'
p413
(I287
I1292
tp414
sS'05146'
p415
(I347
I1541
tp416
sS'05145'
p417
(I89
I549
tp418
sS'05144'
p419
(I294
I1303
tp420
sS'05143'
p421
(I178
I848
tp422
sS'05142'
p423
(I222
I997
tp424
sS'05141'
p425
(I157
I791
tp426
sS'05140'
p427
(I325
I1423
tp428
sS'05326'
p429
(I350
I1546
tp430
sS'05324'
p431
(I375
I1709
tp432
sS'05323'
p433
(I379
I1721
tp434
sS'05320'
p435
(I364
I1602
tp436
sS'05718'
p437
(I94
I586
tp438
sS'05719'
p439
(I154
I786
tp440
sS'05716'
p441
(I110
I624
tp442
sS'05717'
p443
(I79
I522
tp444
sS'05714'
p445
(I373
I1704
tp446
sS'05715'
p447
(I366
I1609
tp448
sS'05712'
p449
(I30
I385
tp450
sS'05713'
p451
(I99
I600
tp452
sS'05710'
p453
(I11
I318
tp454
sS'05711'
p455
(I17
I326
tp456
sS'05137'
p457
(I146
I754
tp458
sS'05642'
p459
(I137
I730
tp460
sS'05135'
p461
(I296
I1305
tp462
sS'05132'
p463
(I262
I1148
tp464
sS'05645'
p465
(I1
I194
tp466
sS'05130'
p467
(I93
I576
tp468
sS'05131'
p469
(I169
I831
tp470
sS'43282'
p471
(I281
I1263
tp472
sS'43283'
p473
(I279
I1260
tp474
sS'43287'
p475
(I285
I1270
tp476
sS'05059'
p477
(I176
I844
tp478
sS'05058'
p479
(I303
I1340
tp480
sS'05055'
p481
(I235
I1050
tp482
sS'05054'
p483
(I288
I1293
tp484
sS'05057'
p485
(I205
I940
tp486
sS'05056'
p487
(I207
I951
tp488
sS'05051'
p489
(I290
I1294
tp490
sS'05050'
p491
(I314
I1389
tp492
sS'05053'
p493
(I123
I673
tp494
sS'05052'
p495
(I291
I1296
tp496
sS'05028'
p497
(I171
I833
tp498
sS'05029'
p499
(I217
I984
tp500
sS'05020'
p501
(I144
I742
tp502
sS'05021'
p503
(I299
I1321
tp504
sS'05022'
p505
(I163
I818
tp506
sS'05023'
p507
(I90
I562
tp508
sS'05024'
p509
(I134
I714
tp510
sS'05025'
p511
(I245
I1088
tp512
sS'05026'
p513
(I141
I735
tp514
sS'05027'
p515
(I135
I722
tp516
sS'05200'
p517
(I74
I506
tp518
sS'05114'
p519
(I112
I625
tp520
sS'05115'
p521
(I145
I752
tp522
sS'05116'
p523
(I106
I623
tp524
sS'05117'
p525
(I20
I340
tp526
sS'05110'
p527
(I248
I1096
tp528
sS'05111'
p529
(I75
I508
tp530
sS'05112'
p531
(I249
I1096
tp532
sS'05113'
p533
(I42
I417
tp534
sS'05296'
p535
(I197
I913
tp536
sS'05295'
p537
(I138
I731
tp538
sS'05294'
p539
(I234
I1046
tp540
sS'05293'
p541
(I100
I605
tp542
sS'05119'
p543
(I81
I530
tp544
sS'05277'
p545
(I209
I956
tp546
sS'43367'
p547
(I315
I1397
tp548
sS'43366'
p549
(I333
I1475
tp550
sS'05688'
p551
(I247
I1094
tp552
sS'05689'
p553
(I257
I1111
tp554
sS'05684'
p555
(I387
I1785
tp556
sS'05685'
p557
(I386
I1767
tp558
sS'05686'
p559
(I370
I1666
tp560
sS'05687'
p561
(I284
I1270
tp562
sS'05680'
p563
(I181
I855
tp564
sS'05681'
p565
(I219
I991
tp566
sS'05682'
p567
(I108
I624
tp568
sS'05683'
p569
(I206
I947
tp570
sS'05312'
p571
(I363
I1596
tp572
sS'05313'
p573
(I348
I1542
tp574
sS'05707'
p575
(I254
I1103
tp576
sS'05706'
p577
(I269
I1181
tp578
sS'05701'
p579
(I295
I1304
tp580
sS'05700'
p581
(I308
I1358
tp582
sS'05314'
p583
(I64
I488
tp584
sS'05315'
p585
(I242
I1079
tp586
sS'05228'
p587
(I26
I375
tp588
sS'05129'
p589
(I39
I410
tp590
sS'05128'
p591
(I183
I879
tp592
sS'05658'
p593
(I67
I490
tp594
sS'05657'
p595
(I56
I452
tp596
sS'05656'
p597
(I9
I297
tp598
sS'05655'
p599
(I22
I344
tp600
sS'05654'
p601
(I55
I449
tp602
sS'05653'
p603
(I21
I343
tp604
sS'05652'
p605
(I41
I416
tp606
sS'05651'
p607
(I71
I502
tp608
sS'05650'
p609
(I33
I391
tp610
sS'05088'
p611
(I191
I902
tp612
sS'05089'
p613
(I253
I1102
tp614
sS'05082'
p615
(I175
I842
tp616
sS'05083'
p617
(I139
I732
tp618
sS'05080'
p619
(I102
I608
tp620
sS'05081'
p621
(I196
I913
tp622
sS'05086'
p623
(I331
I1450
tp624
sS'05087'
p625
(I293
I1303
tp626
sS'05084'
p627
(I351
I1547
tp628
sS'05085'
p629
(I368
I1636
tp630
sS'05630'
p631
(I29
I381
tp632
sS'05011'
p633
(I50
I435
tp634
sS'05010'
p635
(I231
I1043
tp636
sS'05013'
p637
(I113
I633
tp638
sS'05012'
p639
(I187
I893
tp640
sS'05015'
p641
(I378
I1719
tp642
sS'05014'
p643
(I98
I600
tp644
sS'05017'
p645
(I358
I1587
tp646
sS'05016'
p647
(I388
I1797
tp648
sS'05150'
p649
(I200
I930
tp650
sS'05018'
p651
(I338
I1503
tp652
sS'05152'
p653
(I31
I390
tp654
sS'05153'
p655
(I152
I781
tp656
sS'05154'
p657
(I25
I373
tp658
sS'05155'
p659
(I12
I322
tp660
sS'05156'
p661
(I69
I497
tp662
sS'05157'
p663
(I201
I931
tp664
sS'05332'
p665
(I213
I968
tp666
sS'05333'
p667
(I263
I1154
tp668
sS'05334'
p669
(I277
I1237
tp670
sS'05335'
p671
(I311
I1366
tp672
sS'05336'
p673
(I122
I665
tp674
sS'05337'
p675
(I124
I692
tp676
sS'05338'
p677
(I142
I735
tp678
sS'05339'
p679
(I259
I1123
tp680
sS'05729'
p681
(I73
I504
tp682
sS'05728'
p683
(I195
I910
tp684
sS'05723'
p685
(I147
I762
tp686
sS'05722'
p687
(I192
I903
tp688
sS'05721'
p689
(I72
I504
tp690
sS'05720'
p691
(I103
I608
tp692
sS'05727'
p693
(I150
I775
tp694
sS'05726'
p695
(I156
I786
tp696
sS'05725'
p697
(I194
I910
tp698
sS'05724'
p699
(I155
I786
tp700
sS'05345'
p701
(I318
I1400
tp702
sS'05344'
p703
(I376
I1715
tp704
sS'05347'
p705
(I357
I1586
tp706
sS'05346'
p707
(I286
I1275
tp708
sS'05341'
p709
(I327
I1428
tp710
sS'05343'
p711
(I225
I1006
tp712
sS'05342'
p713
(I78
I517
tp714
sS'05349'
p715
(I300
I1330
tp716
sS'05348'
p717
(I230
I1029
tp718
sS'05125'
p719
(I105
I621
tp720
sS'05124'
p721
(I276
I1232
tp722
sS'05127'
p723
(I246
I1093
tp724
sS'05126'
p725
(I202
I934
tp726
sS'05121'
p727
(I317
I1400
tp728
sS'05120'
p729
(I167
I824
tp730
sS'05123'
p731
(I320
I1402
tp732
sS'05122'
p733
(I232
I1044
tp734
sS'05048'
p735
(I346
I1539
tp736
sS'05049'
p737
(I360
I1588
tp738
sS'05046'
p739
(I151
I779
tp740
sS'05047'
p741
(I385
I1767
tp742
sS'05044'
p743
(I250
I1097
tp744
sS'05045'
p745
(I180
I851
tp746
sS'05042'
p747
(I48
I429
tp748
sS'05043'
p749
(I101
I607
tp750
sS'05040'
p751
(I82
I534
tp752
sS'05041'
p753
(I46
I423
tp754
sS'05600'
p755
(I190
I900
tp756
sS'05161'
p757
(I126
I695
tp758
sS'05160'
p759
(I321
I1405
tp760
sS'05162'
p761
(I59
I467
tp762
sS'05165'
p763
(I172
I841
tp764
sS'05167'
p765
(I61
I473
tp766
sS'05166'
p767
(I214
I969
tp768
sS'05169'
p769
(I377
I1717
tp770
sS'05168'
p771
(I85
I543
tp772
sS'05282'
p773
(I390
I1818
tp774
sS'05284'
p775
(I198
I922
tp776
sS'05285'
p777
(I211
I965
tp778
sS'05286'
p779
(I133
I713
tp780
s.