(dp0
S'06932'
p1
(I249
I1155
tp2
sS'06931'
p3
(I199
I1006
tp4
sS'06930'
p5
(I389
I1649
tp6
sS'06509'
p7
(I294
I1296
tp8
sS'06119'
p9
(I298
I1308
tp10
sS'06118'
p11
(I408
I1714
tp12
sS'06502'
p13
(I85
I601
tp14
sS'06114'
p15
(I16
I324
tp16
sS'06117'
p17
(I439
I1785
tp18
sS'06116'
p19
(I201
I1009
tp20
sS'06504'
p21
(I171
I917
tp22
sS'06505'
p23
(I100
I660
tp24
sS'06342'
p25
(I394
I1658
tp26
sS'06590'
p27
(I136
I803
tp28
sS'06592'
p29
(I310
I1348
tp30
sS'06595'
p31
(I67
I514
tp32
sS'06594'
p33
(I224
I1074
tp34
sS'06597'
p35
(I181
I956
tp36
sS'06989'
p37
(I105
I681
tp38
sS'06986'
p39
(I124
I741
tp40
sS'06598'
p41
(I198
I1006
tp42
sS'06984'
p43
(I30
I397
tp44
sS'06985'
p45
(I142
I821
tp46
sS'06982'
p47
(I423
I1746
tp48
sS'06983'
p49
(I415
I1734
tp50
sS'06980'
p51
(I367
I1573
tp52
sS'06981'
p53
(I429
I1765
tp54
sS'06340'
p55
(I433
I1769
tp56
sS'06341'
p57
(I334
I1468
tp58
sS'06434'
p59
(I116
I720
tp60
sS'06343'
p61
(I411
I1720
tp62
sS'06432'
p63
(I17
I324
tp64
sS'06433'
p65
(I350
I1506
tp66
sS'06430'
p67
(I43
I439
tp68
sS'06431'
p69
(I209
I1028
tp70
sS'06349'
p71
(I284
I1255
tp72
sS'06438'
p73
(I309
I1348
tp74
sS'06439'
p75
(I119
I731
tp76
sS'06029'
p77
(I96
I653
tp78
sS'06028'
p79
(I304
I1336
tp80
sS'06182'
p81
(I219
I1067
tp82
sS'06183'
p83
(I15
I318
tp84
sS'06180'
p85
(I109
I700
tp86
sS'06023'
p87
(I257
I1184
tp88
sS'06022'
p89
(I81
I585
tp90
sS'06025'
p91
(I281
I1252
tp92
sS'06024'
p93
(I7
I282
tp94
sS'06027'
p95
(I234
I1104
tp96
sS'06189'
p97
(I338
I1476
tp98
sS'06115'
p99
(I404
I1704
tp100
sS'06503'
p101
(I346
I1498
tp102
sS'06334'
p103
(I333
I1466
tp104
sS'06337'
p105
(I361
I1556
tp106
sS'06336'
p107
(I386
I1642
tp108
sS'06331'
p109
(I128
I760
tp110
sS'06330'
p111
(I83
I595
tp112
sS'06333'
p113
(I430
I1767
tp114
sS'06332'
p115
(I261
I1192
tp116
sS'06234'
p117
(I362
I1560
tp118
sS'06235'
p119
(I300
I1312
tp120
sS'06236'
p121
(I290
I1279
tp122
sS'06237'
p123
(I211
I1032
tp124
sS'06339'
p125
(I264
I1205
tp126
sS'06338'
p127
(I335
I1472
tp128
sS'06232'
p129
(I369
I1581
tp130
sS'06233'
p131
(I356
I1523
tp132
sS'06112'
p133
(I345
I1497
tp134
sS'06720'
p135
(I440
I1785
tp136
sS'06726'
p137
(I291
I1280
tp138
sS'06725'
p139
(I321
I1405
tp140
sS'06728'
p141
(I306
I1341
tp142
sS'06729'
p143
(I277
I1237
tp144
sS'06399'
p145
(I255
I1172
tp146
sS'06559'
p147
(I64
I505
tp148
sS'06398'
p149
(I431
I1767
tp150
sS'06151'
p151
(I274
I1223
tp152
sS'06150'
p153
(I385
I1640
tp154
sS'06152'
p155
(I193
I1000
tp156
sS'06159'
p157
(I233
I1103
tp158
sS'06091'
p159
(I77
I571
tp160
sS'06094'
p161
(I363
I1565
tp162
sS'06097'
p163
(I71
I533
tp164
sS'27008'
p165
(I125
I745
tp166
sS'27009'
p167
(I130
I762
tp168
sS'27007'
p169
(I92
I635
tp170
sS'27002'
p171
(I38
I434
tp172
sS'27000'
p173
(I31
I402
tp174
sS'27001'
p175
(I57
I475
tp176
sS'06011'
p177
(I412
I1723
tp178
sS'06384'
p179
(I383
I1631
tp180
sS'06249'
p181
(I296
I1302
tp182
sS'06387'
p183
(I159
I867
tp184
sS'06380'
p185
(I397
I1678
tp186
sS'06988'
p187
(I196
I1003
tp188
sS'06248'
p189
(I216
I1062
tp190
sS'06596'
p191
(I188
I975
tp192
sS'06388'
p193
(I197
I1005
tp194
sS'06389'
p195
(I204
I1017
tp196
sS'06599'
p197
(I254
I1164
tp198
sS'06987'
p199
(I221
I1071
tp200
sS'06472'
p201
(I29
I393
tp202
sS'06470'
p203
(I46
I441
tp204
sS'06471'
p205
(I34
I414
tp206
sS'06476'
p207
(I36
I422
tp208
sS'06475'
p209
(I53
I467
tp210
sS'06977'
p211
(I93
I643
tp212
sS'06976'
p213
(I112
I707
tp214
sS'06974'
p215
(I143
I825
tp216
sS'06972'
p217
(I351
I1506
tp218
sS'06971'
p219
(I332
I1463
tp220
sS'06970'
p221
(I2
I257
tp222
sS'06978'
p223
(I227
I1079
tp224
sS'06393'
p225
(I378
I1626
tp226
sS'06246'
p227
(I292
I1290
tp228
sS'06076'
p229
(I425
I1752
tp230
sS'06075'
p231
(I417
I1742
tp232
sS'06072'
p233
(I245
I1141
tp234
sS'06070'
p235
(I138
I811
tp236
sS'06071'
p237
(I260
I1191
tp238
sS'06373'
p239
(I275
I1231
tp240
sS'06375'
p241
(I242
I1131
tp242
sS'06374'
p243
(I344
I1495
tp244
sS'06377'
p245
(I250
I1159
tp246
sS'06379'
p247
(I452
I1911
tp248
sS'06622'
p249
(I166
I894
tp250
sS'06201'
p251
(I241
I1124
tp252
sS'06437'
p253
(I436
I1772
tp254
sS'06209'
p255
(I288
I1278
tp256
sS'06208'
p257
(I280
I1248
tp258
sS'06617'
p259
(I72
I546
tp260
sS'06615'
p261
(I61
I497
tp262
sS'06618'
p263
(I409
I1714
tp264
sS'06619'
p265
(I162
I875
tp266
sS'27042'
p267
(I180
I952
tp268
sS'27043'
p269
(I129
I761
tp270
sS'27046'
p271
(I375
I1606
tp272
sS'27047'
p273
(I133
I781
tp274
sS'27044'
p275
(I21
I354
tp276
sS'27045'
p277
(I28
I389
tp278
sS'27048'
p279
(I352
I1511
tp280
sS'27049'
p281
(I432
I1767
tp282
sS'06537'
p283
(I110
I703
tp284
sS'06101'
p285
(I435
I1772
tp286
sS'06546'
p287
(I302
I1314
tp288
sS'06468'
p289
(I41
I437
tp290
sS'06012'
p291
(I278
I1241
tp292
sS'06583'
p293
(I416
I1737
tp294
sS'06580'
p295
(I102
I666
tp296
sS'06545'
p297
(I243
I1136
tp298
sS'06586'
p299
(I59
I486
tp300
sS'06587'
p301
(I65
I510
tp302
sS'06584'
p303
(I366
I1572
tp304
sS'06585'
p305
(I95
I652
tp306
sS'06588'
p307
(I164
I881
tp308
sS'06589'
p309
(I247
I1149
tp310
sS'06543'
p311
(I200
I1008
tp312
sS'06017'
p313
(I182
I959
tp314
sS'06403'
p315
(I178
I943
tp316
sS'06402'
p317
(I115
I718
tp318
sS'06401'
p319
(I75
I567
tp320
sS'06400'
p321
(I108
I685
tp322
sS'06406'
p323
(I251
I1161
tp324
sS'06405'
p325
(I70
I530
tp326
sS'06404'
p327
(I203
I1011
tp328
sS'06409'
p329
(I60
I497
tp330
sS'06408'
p331
(I160
I869
tp332
sS'06463'
p333
(I135
I802
tp334
sS'06038'
p335
(I446
I1817
tp336
sS'06039'
p337
(I157
I861
tp338
sS'06032'
p339
(I25
I372
tp340
sS'06030'
p341
(I299
I1311
tp342
sS'06037'
p343
(I148
I830
tp344
sS'06034'
p345
(I50
I453
tp346
sS'06035'
p347
(I13
I310
tp348
sS'06548'
p349
(I89
I621
tp350
sS'06466'
p351
(I45
I441
tp352
sS'06326'
p353
(I279
I1242
tp354
sS'06327'
p355
(I74
I556
tp356
sS'06324'
p357
(I283
I1254
tp358
sS'06325'
p359
(I393
I1655
tp360
sS'06322'
p361
(I176
I937
tp362
sS'06323'
p363
(I101
I662
tp364
sS'06320'
p365
(I73
I553
tp366
sS'06321'
p367
(I443
I1798
tp368
sS'06241'
p369
(I240
I1121
tp370
sS'06240'
p371
(I444
I1803
tp372
sS'06243'
p373
(I262
I1195
tp374
sS'06242'
p375
(I322
I1406
tp376
sS'06245'
p377
(I287
I1276
tp378
sS'06244'
p379
(I134
I790
tp380
sS'06328'
p381
(I90
I623
tp382
sS'06329'
p383
(I107
I685
tp384
sS'06483'
p385
(I236
I1110
tp386
sS'06529'
p387
(I149
I839
tp388
sS'06142'
p389
(I297
I1304
tp390
sS'06143'
p391
(I237
I1113
tp392
sS'06146'
p393
(I373
I1596
tp394
sS'06147'
p395
(I256
I1174
tp396
sS'06145'
p397
(I232
I1103
tp398
sS'06487'
p399
(I218
I1066
tp400
sS'06149'
p401
(I384
I1639
tp402
sS'27033'
p403
(I187
I973
tp404
sS'27032'
p405
(I340
I1483
tp406
sS'27030'
p407
(I225
I1075
tp408
sS'27035'
p409
(I359
I1542
tp410
sS'27034'
p411
(I168
I902
tp412
sS'06447'
p413
(I153
I854
tp414
sS'06446'
p415
(I114
I715
tp416
sS'06444'
p417
(I82
I591
tp418
sS'06443'
p419
(I79
I576
tp420
sS'06442'
p421
(I47
I443
tp422
sS'06441'
p423
(I132
I773
tp424
sS'06440'
p425
(I11
I291
tp426
sS'06449'
p427
(I229
I1084
tp428
sS'06448'
p429
(I94
I650
tp430
sS'06960'
p431
(I422
I1746
tp432
sS'06961'
p433
(I4
I269
tp434
sS'06962'
p435
(I9
I285
tp436
sS'06963'
p437
(I5
I269
tp438
sS'06964'
p439
(I56
I472
tp440
sS'06965'
p441
(I165
I882
tp442
sS'06966'
p443
(I8
I284
tp444
sS'06967'
p445
(I26
I382
tp446
sS'06968'
p447
(I145
I826
tp448
sS'06969'
p449
(I410
I1716
tp450
sS'06285'
p451
(I263
I1205
tp452
sS'06239'
p453
(I272
I1221
tp454
sS'06043'
p455
(I337
I1473
tp456
sS'06042'
p457
(I210
I1031
tp458
sS'06041'
p459
(I330
I1459
tp460
sS'06040'
p461
(I246
I1145
tp462
sS'06047'
p463
(I194
I1001
tp464
sS'06046'
p465
(I387
I1645
tp466
sS'06045'
p467
(I175
I934
tp468
sS'06044'
p469
(I343
I1495
tp470
sS'06363'
p471
(I271
I1219
tp472
sS'06049'
p473
(I382
I1631
tp474
sS'06048'
p475
(I273
I1222
tp476
sS'06366'
p477
(I314
I1372
tp478
sS'06367'
p479
(I308
I1347
tp480
sS'06364'
p481
(I265
I1205
tp482
sS'06365'
p483
(I270
I1218
tp484
sS'06230'
p485
(I226
I1079
tp486
sS'06026'
p487
(I398
I1683
tp488
sS'06231'
p489
(I451
I1844
tp490
sS'06216'
p491
(I244
I1138
tp492
sS'06217'
p493
(I212
I1036
tp494
sS'06214'
p495
(I355
I1521
tp496
sS'06215'
p497
(I303
I1329
tp498
sS'06212'
p499
(I167
I895
tp500
sS'06213'
p501
(I269
I1211
tp502
sS'06210'
p503
(I172
I918
tp504
sS'06211'
p505
(I313
I1370
tp506
sS'06218'
p507
(I258
I1189
tp508
sS'06219'
p509
(I266
I1208
tp510
sS'06740'
p511
(I32
I406
tp512
sS'06742'
p513
(I49
I451
tp514
sS'06625'
p515
(I189
I984
tp516
sS'06624'
p517
(I154
I855
tp518
sS'06623'
p519
(I191
I994
tp520
sS'06749'
p521
(I86
I602
tp522
sS'06621'
p523
(I104
I676
tp524
sS'06620'
p525
(I144
I826
tp526
sS'06426'
p527
(I252
I1162
tp528
sS'06959'
p529
(I424
I1750
tp530
sS'06958'
p531
(I441
I1785
tp532
sS'06489'
p533
(I19
I329
tp534
sS'06351'
p535
(I420
I1744
tp536
sS'06528'
p537
(I14
I310
tp538
sS'06482'
p539
(I97
I655
tp540
sS'06481'
p541
(I27
I388
tp542
sS'06480'
p543
(I42
I438
tp544
sS'06955'
p545
(I158
I865
tp546
sS'06957'
p547
(I434
I1771
tp548
sS'06956'
p549
(I156
I858
tp550
sS'06007'
p551
(I320
I1404
tp552
sS'06006'
p553
(I374
I1604
tp554
sS'06004'
p555
(I376
I1613
tp556
sS'06418'
p557
(I118
I729
tp558
sS'06419'
p559
(I24
I369
tp560
sS'06001'
p561
(I312
I1365
tp562
sS'06414'
p563
(I228
I1082
tp564
sS'06415'
p565
(I213
I1042
tp566
sS'06416'
p567
(I103
I669
tp568
sS'06417'
p569
(I35
I417
tp570
sS'06410'
p571
(I62
I502
tp572
sS'06558'
p573
(I127
I759
tp574
sS'06412'
p575
(I58
I483
tp576
sS'06413'
p577
(I6
I278
tp578
sS'06003'
p579
(I207
I1024
tp580
sS'06002'
p581
(I336
I1473
tp582
sS'06168'
p583
(I80
I578
tp584
sS'06312'
p585
(I426
I1753
tp586
sS'06311'
p587
(I195
I1003
tp588
sS'06317'
p589
(I69
I529
tp590
sS'06316'
p591
(I122
I740
tp592
sS'06315'
p593
(I55
I472
tp594
sS'06314'
p595
(I78
I571
tp596
sS'06252'
p597
(I223
I1074
tp598
sS'06253'
p599
(I150
I844
tp600
sS'06250'
p601
(I331
I1459
tp602
sS'06251'
p603
(I111
I707
tp604
sS'06256'
p605
(I293
I1292
tp606
sS'06411'
p607
(I231
I1100
tp608
sS'06009'
p609
(I305
I1340
tp610
sS'06008'
p611
(I22
I357
tp612
sS'06179'
p613
(I120
I733
tp614
sS'06178'
p615
(I51
I453
tp616
sS'06177'
p617
(I84
I598
tp618
sS'06176'
p619
(I170
I911
tp620
sS'06175'
p621
(I414
I1732
tp622
sS'06174'
p623
(I1
I245
tp624
sS'06172'
p625
(I39
I435
tp626
sS'06461'
p627
(I185
I972
tp628
sS'06170'
p629
(I3
I259
tp630
sS'27027'
p631
(I206
I1022
tp632
sS'27021'
p633
(I18
I324
tp634
sS'27022'
p635
(I37
I425
tp636
sS'27023'
p637
(I106
I683
tp638
sS'27028'
p639
(I276
I1233
tp640
sS'27029'
p641
(I214
I1047
tp642
sS'06451'
p643
(I222
I1073
tp644
sS'06453'
p645
(I33
I411
tp646
sS'06454'
p647
(I318
I1393
tp648
sS'06456'
p649
(I139
I811
tp650
sS'06457'
p651
(I155
I858
tp652
sS'06459'
p653
(I285
I1273
tp654
sS'06999'
p655
(I396
I1666
tp656
sS'06998'
p657
(I253
I1162
tp658
sS'06995'
p659
(I315
I1389
tp660
sS'06994'
p661
(I235
I1108
tp662
sS'06997'
p663
(I289
I1278
tp664
sS'06996'
p665
(I52
I464
tp666
sS'06991'
p667
(I329
I1451
tp668
sS'06990'
p669
(I151
I850
tp670
sS'06992'
p671
(I205
I1021
tp672
sS'06357'
p673
(I217
I1063
tp674
sS'06355'
p675
(I325
I1416
tp676
sS'06354'
p677
(I239
I1120
tp678
sS'06353'
p679
(I437
I1777
tp680
sS'06423'
p681
(I10
I286
tp682
sS'06350'
p683
(I301
I1312
tp684
sS'06429'
p685
(I202
I1009
tp686
sS'06428'
p687
(I20
I351
tp688
sS'06359'
p689
(I230
I1089
tp690
sS'06358'
p691
(I311
I1357
tp692
sS'06195'
p693
(I147
I828
tp694
sS'06194'
p695
(I40
I437
tp696
sS'06058'
p697
(I286
I1275
tp698
sS'06190'
p699
(I179
I951
tp700
sS'06193'
p701
(I121
I737
tp702
sS'06192'
p703
(I177
I943
tp704
sS'06054'
p705
(I184
I969
tp706
sS'06055'
p707
(I267
I1209
tp708
sS'06056'
p709
(I339
I1481
tp710
sS'06057'
p711
(I113
I709
tp712
sS'06050'
p713
(I220
I1069
tp714
sS'06051'
p715
(I357
I1534
tp716
sS'06052'
p717
(I328
I1443
tp718
sS'06053'
p719
(I341
I1485
tp720
sS'06158'
p721
(I317
I1393
tp722
sS'06392'
p723
(I448
I1825
tp724
sS'06223'
p725
(I347
I1499
tp726
sS'06222'
p727
(I447
I1824
tp728
sS'06221'
p729
(I327
I1423
tp730
sS'06220'
p731
(I307
I1345
tp732
sS'06226'
p733
(I406
I1708
tp734
sS'06225'
p735
(I450
I1828
tp736
sS'06224'
p737
(I348
I1502
tp738
sS'06229'
p739
(I295
I1299
tp740
sS'06228'
p741
(I388
I1645
tp742
sS'06731'
p743
(I371
I1589
tp744
sS'06730'
p745
(I152
I852
tp746
sS'06733'
p747
(I268
I1210
tp748
sS'06734'
p749
(I215
I1052
tp750
sS'06169'
p751
(I23
I365
tp752
sS'06739'
p753
(I137
I808
tp754
sS'06738'
p755
(I390
I1651
tp756
sS'27060'
p757
(I88
I612
tp758
sS'06124'
p759
(I438
I1782
tp760
sS'06125'
p761
(I161
I875
tp762
sS'06126'
p763
(I399
I1683
tp764
sS'06127'
p765
(I402
I1688
tp766
sS'06120'
p767
(I413
I1727
tp768
sS'06121'
p769
(I140
I814
tp770
sS'06122'
p771
(I421
I1746
tp772
sS'06123'
p773
(I401
I1688
tp774
sS'06084'
p775
(I354
I1516
tp776
sS'06128'
p777
(I407
I1711
tp778
sS'06082'
p779
(I342
I1493
tp780
sS'06081'
p781
(I395
I1663
tp782
sS'06080'
p783
(I427
I1754
tp784
sS'27019'
p785
(I208
I1027
tp786
sS'27018'
p787
(I117
I720
tp788
sS'27015'
p789
(I282
I1252
tp790
sS'27014'
p791
(I380
I1627
tp792
sS'27017'
p793
(I87
I604
tp794
sS'27013'
p795
(I358
I1539
tp796
sS'06319'
p797
(I445
I1804
tp798
sS'06318'
p799
(I364
I1565
tp800
sS'06010'
p801
(I316
I1391
tp802
sS'06547'
p803
(I68
I519
tp804
sS'06544'
p805
(I98
I657
tp806
sS'06013'
p807
(I63
I503
tp808
sS'06014'
p809
(I428
I1760
tp810
sS'06015'
p811
(I183
I964
tp812
sS'06016'
p813
(I353
I1512
tp814
sS'06541'
p815
(I174
I933
tp816
sS'06018'
p817
(I66
I511
tp818
sS'06019'
p819
(I146
I828
tp820
sS'06391'
p821
(I259
I1189
tp822
sS'06462'
p823
(I141
I818
tp824
sS'06465'
p825
(I12
I302
tp826
sS'06396'
p827
(I190
I989
tp828
sS'06395'
p829
(I99
I658
tp830
sS'06549'
p831
(I123
I740
tp832
sS'06736'
p833
(I419
I1743
tp834
sS'06494'
p835
(I44
I440
tp836
sS'06497'
p837
(I76
I567
tp838
sS'06498'
p839
(I126
I759
tp840
sS'06264'
p841
(I323
I1407
tp842
sS'06064'
p843
(I91
I624
tp844
sS'06067'
p845
(I54
I470
tp846
sS'06061'
p847
(I365
I1568
tp848
sS'06309'
p849
(I319
I1397
tp850
sS'06063'
p851
(I368
I1578
tp852
sS'06062'
p853
(I163
I876
tp854
sS'06307'
p855
(I391
I1653
tp856
sS'06068'
p857
(I248
I1155
tp858
sS'06361'
p859
(I442
I1795
tp860
sS'06383'
p861
(I392
I1653
tp862
sS'06601'
p863
(I238
I1115
tp864
sS'06600'
p865
(I173
I930
tp866
sS'06603'
p867
(I192
I995
tp868
sS'06602'
p869
(I169
I910
tp870
sS'06605'
p871
(I186
I972
tp872
sS'06604'
p873
(I326
I1419
tp874
sS'06609'
p875
(I48
I448
tp876
sS'06164'
p877
(I131
I763
tp878
sS'06165'
p879
(I349
I1503
tp880
sS'06166'
p881
(I370
I1587
tp882
sS'06167'
p883
(I381
I1628
tp884
sS'27051'
p885
(I372
I1591
tp886
sS'27050'
p887
(I324
I1415
tp888
sS'27053'
p889
(I400
I1685
tp890
sS'27052'
p891
(I405
I1705
tp892
sS'27055'
p893
(I377
I1624
tp894
sS'27054'
p895
(I403
I1697
tp896
sS'27057'
p897
(I360
I1548
tp898
sS'27056'
p899
(I379
I1626
tp900
sS'27059'
p901
(I418
I1742
tp902
sS'27058'
p903
(I449
I1826
tp904
s.