(dp0
S'07022'
p1
(I210
I990
tp2
sS'07027'
p3
(I90
I517
tp4
sS'42280'
p5
(I65
I425
tp6
sS'07962'
p7
(I193
I917
tp8
sS'07222'
p9
(I201
I939
tp10
sS'07078'
p11
(I244
I1124
tp12
sS'07241'
p13
(I238
I1083
tp14
sS'07961'
p15
(I14
I223
tp16
sS'07218'
p17
(I68
I431
tp18
sS'07960'
p19
(I240
I1084
tp20
sS'07956'
p21
(I134
I704
tp22
sS'07068'
p23
(I144
I748
tp24
sS'07052'
p25
(I64
I425
tp26
sS'07066'
p27
(I49
I366
tp28
sS'07067'
p29
(I69
I438
tp30
sS'07213'
p31
(I61
I411
tp32
sS'07212'
p33
(I133
I697
tp34
sS'07215'
p35
(I96
I546
tp36
sS'07063'
p37
(I79
I473
tp38
sS'07217'
p39
(I21
I287
tp40
sS'07216'
p41
(I24
I297
tp42
sS'42161'
p43
(I100
I554
tp44
sS'07201'
p45
(I239
I1084
tp46
sS'07024'
p47
(I72
I455
tp48
sS'07223'
p49
(I237
I1075
tp50
sS'07057'
p51
(I231
I1057
tp52
sS'07964'
p53
(I216
I1011
tp54
sS'07221'
p55
(I205
I961
tp56
sS'07208'
p57
(I214
I1005
tp58
sS'07207'
p59
(I217
I1017
tp60
sS'07006'
p61
(I140
I740
tp62
sS'07945'
p63
(I196
I922
tp64
sS'07054'
p65
(I221
I1028
tp66
sS'07969'
p67
(I229
I1047
tp68
sS'07935'
p69
(I12
I217
tp70
sS'07968'
p71
(I234
I1063
tp72
sS'07224'
p73
(I243
I1109
tp74
sS'07937'
p75
(I242
I1092
tp76
sS'07059'
p77
(I135
I709
tp78
sS'07209'
p79
(I118
I621
tp80
sS'07053'
p81
(I70
I439
tp82
sS'07203'
p83
(I60
I407
tp84
sS'07051'
p85
(I112
I609
tp86
sS'07050'
p87
(I168
I822
tp88
sS'07206'
p89
(I191
I914
tp90
sS'07056'
p91
(I63
I423
tp92
sS'07055'
p93
(I125
I646
tp94
sS'07205'
p95
(I161
I803
tp96
sS'07953'
p97
(I198
I934
tp98
sS'07075'
p99
(I157
I797
tp100
sS'07045'
p101
(I207
I969
tp102
sS'42190'
p103
(I212
I998
tp104
sS'07927'
p105
(I62
I412
tp106
sS'07926'
p107
(I227
I1045
tp108
sS'07925'
p109
(I5
I143
tp110
sS'07924'
p111
(I28
I306
tp112
sS'07923'
p113
(I13
I218
tp114
sS'07922'
p115
(I111
I597
tp116
sS'07921'
p117
(I225
I1040
tp118
sS'07920'
p119
(I35
I324
tp120
sS'07244'
p121
(I136
I709
tp122
sS'07929'
p123
(I109
I591
tp124
sS'07928'
p125
(I146
I756
tp126
sS'07044'
p127
(I37
I335
tp128
sS'07944'
p129
(I98
I553
tp130
sS'07046'
p131
(I16
I241
tp132
sS'07234'
p133
(I184
I890
tp134
sS'07040'
p135
(I154
I787
tp136
sS'07940'
p137
(I83
I484
tp138
sS'07943'
p139
(I19
I268
tp140
sS'07043'
p141
(I8
I197
tp142
sS'07252'
p143
(I150
I763
tp144
sS'07949'
p145
(I156
I796
tp146
sS'07954'
p147
(I175
I850
tp148
sS'07239'
p149
(I43
I345
tp150
sS'07238'
p151
(I204
I957
tp152
sS'13360'
p153
(I78
I469
tp154
sS'07008'
p155
(I182
I881
tp156
sS'07032'
p157
(I93
I528
tp158
sS'07210'
p159
(I33
I320
tp160
sS'07069'
p161
(I219
I1023
tp162
sS'07064'
p163
(I126
I648
tp164
sS'07227'
p165
(I164
I812
tp166
sS'07225'
p167
(I177
I853
tp168
sS'07077'
p169
(I165
I814
tp170
sS'07065'
p171
(I199
I937
tp172
sS'07037'
p173
(I155
I788
tp174
sS'42188'
p175
(I115
I614
tp176
sS'07062'
p177
(I122
I632
tp178
sS'07036'
p179
(I138
I731
tp180
sS'07214'
p181
(I57
I400
tp182
sS'07930'
p183
(I129
I669
tp184
sS'07931'
p185
(I105
I577
tp186
sS'07932'
p187
(I6
I184
tp188
sS'07933'
p189
(I11
I206
tp190
sS'07934'
p191
(I170
I836
tp192
sS'07060'
p193
(I59
I405
tp194
sS'07936'
p195
(I85
I489
tp196
sS'07913'
p197
(I222
I1034
tp198
sS'07938'
p199
(I46
I359
tp200
sS'07939'
p201
(I80
I473
tp202
sS'43507'
p203
(I141
I742
tp204
sS'07061'
p205
(I169
I833
tp206
sS'07228'
p207
(I139
I732
tp208
sS'07031'
p209
(I127
I656
tp210
sS'07030'
p211
(I119
I628
tp212
sS'07033'
p213
(I117
I617
tp214
sS'07955'
p215
(I3
I137
tp216
sS'07952'
p217
(I180
I877
tp218
sS'07034'
p219
(I32
I318
tp220
sS'07226'
p221
(I143
I747
tp222
sS'07951'
p223
(I94
I532
tp224
sS'07039'
p225
(I67
I431
tp226
sS'07038'
p227
(I158
I798
tp228
sS'07958'
p229
(I2
I127
tp230
sS'07959'
p231
(I185
I890
tp232
sS'07232'
p233
(I174
I845
tp234
sS'07236'
p235
(I186
I894
tp236
sS'07229'
p237
(I241
I1089
tp238
sS'07973'
p239
(I236
I1069
tp240
sS'07240'
p241
(I208
I986
tp242
sS'07268'
p243
(I87
I508
tp244
sS'07042'
p245
(I178
I866
tp246
sS'07269'
p247
(I206
I967
tp248
sS'07963'
p249
(I200
I937
tp250
sS'07023'
p251
(I131
I677
tp252
sS'07020'
p253
(I4
I143
tp254
sS'07021'
p255
(I102
I571
tp256
sS'07026'
p257
(I92
I521
tp258
sS'07966'
p259
(I31
I316
tp260
sS'07965'
p261
(I7
I191
tp262
sS'07025'
p263
(I120
I630
tp264
sS'07028'
p265
(I15
I225
tp266
sS'07029'
p267
(I82
I481
tp268
sS'07230'
p269
(I220
I1025
tp270
sS'07235'
p271
(I173
I844
tp272
sS'07255'
p273
(I124
I644
tp274
sS'07254'
p275
(I104
I574
tp276
sS'07257'
p277
(I20
I277
tp278
sS'07256'
p279
(I26
I303
tp280
sS'07251'
p281
(I74
I462
tp282
sS'07250'
p283
(I66
I430
tp284
sS'07253'
p285
(I147
I758
tp286
sS'07074'
p287
(I128
I666
tp288
sS'07073'
p289
(I132
I696
tp290
sS'07233'
p291
(I181
I879
tp292
sS'07259'
p293
(I76
I464
tp294
sS'07258'
p295
(I89
I512
tp296
sS'07041'
p297
(I153
I785
tp298
sS'07076'
p299
(I194
I918
tp300
sS'07231'
p301
(I163
I811
tp302
sS'07071'
p303
(I213
I1004
tp304
sS'07942'
p305
(I188
I905
tp306
sS'07261'
p307
(I23
I293
tp308
sS'42128'
p309
(I47
I361
tp310
sS'42129'
p311
(I123
I637
tp312
sS'07001'
p313
(I97
I553
tp314
sS'07019'
p315
(I211
I993
tp316
sS'07018'
p317
(I53
I385
tp318
sS'07017'
p319
(I29
I312
tp320
sS'07004'
p321
(I145
I749
tp322
sS'07015'
p323
(I203
I953
tp324
sS'07014'
p325
(I166
I817
tp326
sS'07013'
p327
(I142
I747
tp328
sS'07971'
p329
(I232
I1059
tp330
sS'07011'
p331
(I137
I717
tp332
sS'07010'
p333
(I58
I403
tp334
sS'07246'
p335
(I39
I343
tp336
sS'13350'
p337
(I86
I492
tp338
sS'13353'
p339
(I9
I201
tp340
sS'07245'
p341
(I230
I1052
tp342
sS'13355'
p343
(I10
I201
tp344
sS'07243'
p345
(I54
I389
tp346
sS'07091'
p347
(I81
I475
tp348
sS'07090'
p349
(I106
I582
tp350
sS'07941'
p351
(I195
I918
tp352
sS'13358'
p353
(I25
I300
tp354
sS'07007'
p355
(I223
I1036
tp356
sS'07248'
p357
(I209
I988
tp358
sS'07249'
p359
(I50
I381
tp360
sS'42241'
p361
(I99
I553
tp362
sS'07273'
p363
(I71
I440
tp364
sS'07272'
p365
(I73
I459
tp366
sS'07082'
p367
(I1
I106
tp368
sS'07083'
p369
(I107
I590
tp370
sS'43384'
p371
(I151
I775
tp372
sS'07202'
p373
(I159
I798
tp374
sS'07909'
p375
(I84
I486
tp376
sS'07908'
p377
(I233
I1063
tp378
sS'07901'
p379
(I56
I390
tp380
sS'07900'
p381
(I34
I324
tp382
sS'07002'
p383
(I130
I673
tp384
sS'07003'
p385
(I114
I611
tp386
sS'07905'
p387
(I40
I343
tp388
sS'07005'
p389
(I179
I875
tp390
sS'07907'
p391
(I44
I351
tp392
sS'07906'
p393
(I162
I804
tp394
sS'07080'
p395
(I55
I390
tp396
sS'07081'
p397
(I18
I268
tp398
sS'07271'
p399
(I30
I316
tp400
sS'07270'
p401
(I77
I467
tp402
sS'07277'
p403
(I91
I517
tp404
sS'07276'
p405
(I224
I1037
tp406
sS'07275'
p407
(I88
I508
tp408
sS'07274'
p409
(I52
I381
tp410
sS'07088'
p411
(I75
I463
tp412
sS'07089'
p413
(I197
I930
tp414
sS'13348'
p415
(I27
I305
tp416
sS'07278'
p417
(I160
I800
tp418
sS'07279'
p419
(I183
I884
tp420
sS'07950'
p421
(I172
I840
tp422
sS'13357'
p423
(I189
I909
tp424
sS'07200'
p425
(I218
I1021
tp426
sS'07016'
p427
(I176
I853
tp428
sS'07918'
p429
(I215
I1006
tp430
sS'07919'
p431
(I42
I344
tp432
sS'07912'
p433
(I110
I595
tp434
sS'07970'
p435
(I202
I946
tp436
sS'07910'
p437
(I148
I759
tp438
sS'07911'
p439
(I171
I839
tp440
sS'07916'
p441
(I121
I630
tp442
sS'07917'
p443
(I103
I573
tp444
sS'07914'
p445
(I17
I249
tp446
sS'07915'
p447
(I192
I915
tp448
sS'07079'
p449
(I36
I330
tp450
sS'07972'
p451
(I187
I901
tp452
sS'07967'
p453
(I167
I819
tp454
sS'07264'
p455
(I45
I354
tp456
sS'07265'
p457
(I108
I590
tp458
sS'07266'
p459
(I38
I340
tp460
sS'07267'
p461
(I51
I381
tp462
sS'07260'
p463
(I22
I293
tp464
sS'07070'
p465
(I41
I344
tp466
sS'07262'
p467
(I48
I365
tp468
sS'07072'
p469
(I228
I1046
tp470
sS'42173'
p471
(I95
I541
tp472
sS'07211'
p473
(I149
I761
tp474
sS'07247'
p475
(I116
I615
tp476
sS'07957'
p477
(I190
I910
tp478
sS'07237'
p479
(I226
I1041
tp480
sS'42262'
p481
(I101
I565
tp482
sS'42179'
p483
(I113
I610
tp484
sS'07058'
p485
(I152
I783
tp486
sS'07242'
p487
(I235
I1067
tp488
s.