(dp0
S'08249'
p1
(I25
I393
tp2
sS'08243'
p3
(I260
I1153
tp4
sS'08240'
p5
(I28
I401
tp6
sS'08247'
p7
(I84
I571
tp8
sS'08245'
p9
(I180
I884
tp10
sS'08244'
p11
(I54
I453
tp12
sS'08649'
p13
(I164
I849
tp14
sS'08648'
p15
(I241
I1101
tp16
sS'08647'
p17
(I257
I1151
tp18
sS'08646'
p19
(I251
I1120
tp20
sS'08645'
p21
(I206
I998
tp22
sS'08643'
p23
(I187
I919
tp24
sS'08642'
p25
(I188
I929
tp26
sS'08641'
p27
(I275
I1226
tp28
sS'08640'
p29
(I93
I612
tp30
sS'08159'
p31
(I58
I467
tp32
sS'08018'
p33
(I279
I1243
tp34
sS'08019'
p35
(I192
I941
tp36
sS'08544'
p37
(I148
I792
tp38
sS'08017'
p39
(I273
I1220
tp40
sS'08014'
p41
(I322
I1429
tp42
sS'08015'
p43
(I354
I1583
tp44
sS'08012'
p45
(I329
I1463
tp46
sS'08013'
p47
(I179
I876
tp48
sS'08542'
p49
(I128
I717
tp50
sS'08543'
p51
(I256
I1148
tp52
sS'08625'
p53
(I363
I1705
tp54
sS'08493'
p55
(I307
I1344
tp56
sS'08491'
p57
(I298
I1315
tp58
sS'08494'
p59
(I303
I1334
tp60
sS'08495'
p61
(I351
I1576
tp62
sS'43570'
p63
(I218
I1040
tp64
sS'08598'
p65
(I121
I686
tp66
sS'08160'
p67
(I52
I453
tp68
sS'08161'
p69
(I53
I453
tp70
sS'08164'
p71
(I16
I372
tp72
sS'08165'
p73
(I45
I434
tp74
sS'08168'
p75
(I20
I384
tp76
sS'08169'
p77
(I15
I370
tp78
sS'08388'
p79
(I36
I415
tp80
sS'08389'
p81
(I77
I545
tp82
sS'08386'
p83
(I116
I675
tp84
sS'08387'
p85
(I114
I672
tp86
sS'08384'
p87
(I56
I454
tp88
sS'08383'
p89
(I226
I1070
tp90
sS'08380'
p91
(I234
I1081
tp92
sS'08573'
p93
(I14
I365
tp94
sS'08290'
p95
(I64
I481
tp96
sS'08113'
p97
(I30
I404
tp98
sS'08116'
p99
(I19
I383
tp100
sS'08578'
p101
(I27
I398
tp102
sS'08614'
p103
(I297
I1312
tp104
sS'08615'
p105
(I302
I1327
tp106
sS'08616'
p107
(I125
I712
tp108
sS'08617'
p109
(I133
I744
tp110
sS'08610'
p111
(I170
I857
tp112
sS'08611'
p113
(I217
I1035
tp114
sS'08599'
p115
(I168
I853
tp116
sS'08613'
p117
(I235
I1083
tp118
sS'08597'
p119
(I96
I615
tp120
sS'08596'
p121
(I223
I1061
tp122
sS'08595'
p123
(I306
I1342
tp124
sS'08594'
p125
(I358
I1621
tp126
sS'08593'
p127
(I292
I1298
tp128
sS'08592'
p129
(I277
I1232
tp130
sS'08591'
p131
(I99
I644
tp132
sS'08590'
p133
(I150
I794
tp134
sS'08206'
p135
(I332
I1472
tp136
sS'08204'
p137
(I338
I1519
tp138
sS'08202'
p139
(I193
I951
tp140
sS'08200'
p141
(I22
I387
tp142
sS'08575'
p143
(I21
I384
tp144
sS'08574'
p145
(I13
I362
tp146
sS'08577'
p147
(I38
I417
tp148
sS'08576'
p149
(I2
I310
tp150
sS'08478'
p151
(I252
I1121
tp152
sS'43495'
p153
(I146
I785
tp154
sS'08476'
p155
(I336
I1516
tp156
sS'08579'
p157
(I271
I1202
tp158
sS'08471'
p159
(I111
I666
tp160
sS'08189'
p161
(I242
I1104
tp162
sS'08180'
p163
(I47
I444
tp164
sS'08182'
p165
(I46
I436
tp166
sS'08183'
p167
(I44
I433
tp168
sS'08500'
p169
(I81
I562
tp170
sS'08501'
p171
(I342
I1536
tp172
sS'08050'
p173
(I300
I1322
tp174
sS'08504'
p175
(I92
I612
tp176
sS'08057'
p177
(I278
I1242
tp178
sS'08054'
p179
(I189
I930
tp180
sS'08507'
p181
(I145
I780
tp182
sS'08508'
p183
(I196
I961
tp184
sS'08509'
p185
(I203
I992
tp186
sS'08058'
p187
(I144
I775
tp188
sS'08059'
p189
(I350
I1574
tp190
sS'43393'
p191
(I51
I448
tp192
sS'08047'
p193
(I286
I1262
tp194
sS'08011'
p195
(I347
I1567
tp196
sS'42265'
p197
(I162
I848
tp198
sS'42261'
p199
(I152
I810
tp200
sS'08376'
p201
(I327
I1455
tp202
sS'08370'
p203
(I102
I649
tp204
sS'08124'
p205
(I249
I1116
tp206
sS'08505'
p207
(I154
I813
tp208
sS'08506'
p209
(I157
I834
tp210
sS'08690'
p211
(I294
I1302
tp212
sS'08123'
p213
(I33
I408
tp214
sS'08120'
p215
(I39
I422
tp216
sS'08121'
p217
(I42
I428
tp218
sS'08658'
p219
(I331
I1466
tp220
sS'08659'
p221
(I359
I1630
tp222
sS'08651'
p223
(I131
I732
tp224
sS'08652'
p225
(I330
I1463
tp226
sS'08653'
p227
(I176
I869
tp228
sS'08654'
p229
(I204
I995
tp230
sS'08655'
p231
(I243
I1104
tp232
sS'08656'
p233
(I126
I712
tp234
sS'08657'
p235
(I195
I956
tp236
sS'08539'
p237
(I83
I568
tp238
sS'08538'
p239
(I122
I688
tp240
sS'08029'
p241
(I98
I640
tp242
sS'08028'
p243
(I138
I766
tp244
sS'08023'
p245
(I247
I1112
tp246
sS'08020'
p247
(I124
I704
tp248
sS'08537'
p249
(I117
I675
tp250
sS'08629'
p251
(I362
I1683
tp252
sS'08628'
p253
(I227
I1070
tp254
sS'08252'
p255
(I37
I417
tp256
sS'08157'
p257
(I4
I317
tp258
sS'08156'
p259
(I78
I552
tp260
sS'08627'
p261
(I272
I1212
tp262
sS'08621'
p263
(I100
I646
tp264
sS'08259'
p265
(I163
I849
tp266
sS'08444'
p267
(I132
I738
tp268
sS'08449'
p269
(I250
I1116
tp270
sS'08435'
p271
(I62
I474
tp272
sS'08436'
p273
(I212
I1023
tp274
sS'42236'
p275
(I311
I1354
tp276
sS'42237'
p277
(I105
I654
tp278
sS'08231'
p279
(I85
I572
tp280
sS'08671'
p281
(I285
I1260
tp282
sS'43245'
p283
(I135
I756
tp284
sS'08268'
p285
(I263
I1166
tp286
sS'08267'
p287
(I282
I1258
tp288
sS'08261'
p289
(I274
I1221
tp290
sS'08263'
p291
(I267
I1181
tp292
sS'08262'
p293
(I220
I1046
tp294
sS'43241'
p295
(I107
I656
tp296
sS'08661'
p297
(I348
I1572
tp298
sS'08589'
p299
(I183
I902
tp300
sS'08663'
p301
(I68
I494
tp302
sS'08662'
p303
(I268
I1194
tp304
sS'08665'
p305
(I276
I1230
tp306
sS'08667'
p307
(I324
I1433
tp308
sS'08666'
p309
(I287
I1265
tp310
sS'08669'
p311
(I159
I844
tp312
sS'08668'
p313
(I230
I1075
tp314
sS'08582'
p315
(I253
I1135
tp316
sS'08583'
p317
(I270
I1201
tp318
sS'08584'
p319
(I325
I1441
tp320
sS'08586'
p321
(I258
I1152
tp322
sS'08587'
p323
(I149
I793
tp324
sS'08218'
p325
(I186
I916
tp326
sS'08210'
p327
(I219
I1046
tp328
sS'08211'
p329
(I356
I1612
tp330
sS'08214'
p331
(I108
I657
tp332
sS'08215'
p333
(I118
I678
tp334
sS'08216'
p335
(I88
I581
tp336
sS'08409'
p337
(I284
I1260
tp338
sS'08567'
p339
(I153
I811
tp340
sS'08562'
p341
(I127
I716
tp342
sS'08560'
p343
(I143
I774
tp344
sS'08561'
p345
(I134
I755
tp346
sS'08402'
p347
(I61
I472
tp348
sS'08568'
p349
(I177
I871
tp350
sS'08569'
p351
(I181
I888
tp352
sS'08104'
p353
(I3
I314
tp354
sS'08105'
p355
(I31
I405
tp356
sS'08106'
p357
(I35
I411
tp358
sS'08107'
p359
(I18
I375
tp360
sS'08100'
p361
(I66
I483
tp362
sS'08101'
p363
(I10
I355
tp364
sS'08069'
p365
(I280
I1249
tp366
sS'08068'
p367
(I259
I1153
tp368
sS'08067'
p369
(I89
I585
tp370
sS'08066'
p371
(I91
I610
tp372
sS'08065'
p373
(I175
I868
tp374
sS'08064'
p375
(I172
I860
tp376
sS'08061'
p377
(I110
I664
tp378
sS'08060'
p379
(I106
I656
tp380
sS'08314'
p381
(I67
I493
tp382
sS'08316'
p383
(I73
I526
tp384
sS'08319'
p385
(I104
I654
tp386
sS'08318'
p387
(I201
I984
tp388
sS'08085'
p389
(I76
I544
tp390
sS'08084'
p391
(I59
I468
tp392
sS'08087'
p393
(I165
I850
tp394
sS'08081'
p395
(I115
I674
tp396
sS'08083'
p397
(I299
I1318
tp398
sS'08082'
p399
(I112
I667
tp400
sS'08089'
p401
(I160
I848
tp402
sS'08363'
p403
(I6
I325
tp404
sS'08365'
p405
(I80
I561
tp406
sS'08366'
p407
(I75
I540
tp408
sS'42297'
p409
(I101
I647
tp410
sS'43218'
p411
(I74
I536
tp412
sS'08686'
p413
(I169
I853
tp414
sS'08702'
p415
(I198
I964
tp416
sS'08703'
p417
(I173
I860
tp418
sS'08700'
p419
(I207
I999
tp420
sS'08701'
p421
(I244
I1104
tp422
sS'08706'
p423
(I199
I964
tp424
sS'08707'
p425
(I314
I1370
tp426
sS'08704'
p427
(I174
I866
tp428
sS'08705'
p429
(I87
I575
tp430
sS'08708'
p431
(I94
I612
tp432
sS'08513'
p433
(I293
I1299
tp434
sS'08683'
p435
(I137
I764
tp436
sS'08682'
p437
(I317
I1400
tp438
sS'08681'
p439
(I341
I1534
tp440
sS'08680'
p441
(I216
I1033
tp442
sS'08687'
p443
(I166
I851
tp444
sS'08138'
p445
(I301
I1324
tp446
sS'08685'
p447
(I269
I1195
tp448
sS'08684'
p449
(I290
I1292
tp450
sS'08689'
p451
(I232
I1078
tp452
sS'08688'
p453
(I171
I858
tp454
sS'08130'
p455
(I221
I1052
tp456
sS'08133'
p457
(I49
I447
tp458
sS'08132'
p459
(I233
I1080
tp460
sS'08010'
p461
(I349
I1573
tp462
sS'08221'
p463
(I283
I1259
tp464
sS'08220'
p465
(I209
I1017
tp466
sS'08225'
p467
(I265
I1174
tp468
sS'08639'
p469
(I213
I1026
tp470
sS'08637'
p471
(I239
I1091
tp472
sS'08142'
p473
(I26
I398
tp474
sS'08143'
p475
(I9
I354
tp476
sS'08632'
p477
(I156
I831
tp478
sS'08633'
p479
(I178
I873
tp480
sS'08146'
p481
(I40
I423
tp482
sS'08147'
p483
(I29
I402
tp484
sS'08452'
p485
(I60
I470
tp486
sS'08453'
p487
(I334
I1495
tp488
sS'08450'
p489
(I225
I1066
tp490
sS'08451'
p491
(I90
I606
tp492
sS'08351'
p493
(I361
I1667
tp494
sS'08353'
p495
(I228
I1072
tp496
sS'08352'
p497
(I231
I1078
tp498
sS'08355'
p499
(I323
I1430
tp500
sS'08354'
p501
(I355
I1587
tp502
sS'08459'
p503
(I130
I731
tp504
sS'08034'
p505
(I353
I1580
tp506
sS'08035'
p507
(I308
I1346
tp508
sS'08037'
p509
(I141
I770
tp510
sS'08030'
p511
(I326
I1448
tp512
sS'08031'
p513
(I79
I554
tp514
sS'08032'
p515
(I248
I1113
tp516
sS'08038'
p517
(I95
I614
tp518
sS'08039'
p519
(I136
I757
tp520
sS'42240'
p521
(I214
I1030
tp522
sS'08148'
p523
(I63
I477
tp524
sS'08588'
p525
(I357
I1612
tp526
sS'08660'
p527
(I346
I1558
tp528
sS'08277'
p529
(I291
I1297
tp530
sS'08274'
p531
(I211
I1021
tp532
sS'08272'
p533
(I304
I1336
tp534
sS'08273'
p535
(I264
I1172
tp536
sS'08270'
p537
(I288
I1277
tp538
sS'08271'
p539
(I310
I1349
tp540
sS'08228'
p541
(I236
I1085
tp542
sS'08634'
p543
(I320
I1422
tp544
sS'08672'
p545
(I352
I1576
tp546
sS'08673'
p547
(I82
I564
tp548
sS'08670'
p549
(I266
I1174
tp550
sS'08635'
p551
(I313
I1366
tp552
sS'08676'
p553
(I261
I1158
tp554
sS'08677'
p555
(I109
I661
tp556
sS'08674'
p557
(I240
I1098
tp558
sS'08675'
p559
(I161
I848
tp560
sS'08144'
p561
(I5
I321
tp562
sS'08678'
p563
(I312
I1365
tp564
sS'08679'
p565
(I340
I1525
tp566
sS'08145'
p567
(I12
I360
tp568
sS'08580'
p569
(I1
I223
tp570
sS'08631'
p571
(I245
I1105
tp572
sS'08553'
p573
(I305
I1339
tp574
sS'08550'
p575
(I345
I1557
tp576
sS'08554'
p577
(I200
I973
tp578
sS'08005'
p579
(I182
I893
tp580
sS'08410'
p581
(I139
I766
tp582
sS'08411'
p583
(I328
I1455
tp584
sS'08001'
p585
(I24
I392
tp586
sS'08417'
p587
(I295
I1307
tp588
sS'08003'
p589
(I333
I1474
tp590
sS'08002'
p591
(I229
I1074
tp592
sS'08481'
p593
(I335
I1503
tp594
sS'08484'
p595
(I191
I936
tp596
sS'08487'
p597
(I344
I1547
tp598
sS'08489'
p599
(I97
I626
tp600
sS'08488'
p601
(I55
I453
tp602
sS'08078'
p603
(I296
I1310
tp604
sS'08173'
p605
(I41
I425
tp606
sS'08172'
p607
(I43
I433
tp608
sS'08177'
p609
(I71
I518
tp610
sS'08071'
p611
(I281
I1251
tp612
sS'08073'
p613
(I224
I1065
tp614
sS'08074'
p615
(I113
I669
tp616
sS'08077'
p617
(I57
I456
tp618
sS'08305'
p619
(I321
I1424
tp620
sS'08309'
p621
(I315
I1371
tp622
sS'08096'
p623
(I120
I685
tp624
sS'08094'
p625
(I205
I998
tp626
sS'08092'
p627
(I151
I810
tp628
sS'08093'
p629
(I48
I445
tp630
sS'08090'
p631
(I65
I482
tp632
sS'08091'
p633
(I32
I406
tp634
sS'08390'
p635
(I86
I575
tp636
sS'08393'
p637
(I34
I409
tp638
sS'08288'
p639
(I337
I1518
tp640
sS'43483'
p641
(I70
I496
tp642
sS'08286'
p643
(I129
I724
tp644
sS'08284'
p645
(I208
I1003
tp646
sS'08698'
p647
(I360
I1647
tp648
sS'08699'
p649
(I316
I1393
tp650
sS'08128'
p651
(I185
I905
tp652
sS'08129'
p653
(I50
I448
tp654
sS'08694'
p655
(I167
I852
tp656
sS'08695'
p657
(I119
I678
tp658
sS'08696'
p659
(I210
I1019
tp660
sS'08697'
p661
(I123
I701
tp662
sS'08122'
p663
(I72
I523
tp664
sS'08691'
p665
(I147
I789
tp666
sS'08692'
p667
(I202
I985
tp668
sS'08693'
p669
(I246
I1109
tp670
sS'08531'
p671
(I289
I1288
tp672
sS'08609'
p673
(I142
I772
tp674
sS'08608'
p675
(I197
I962
tp676
sS'08236'
p677
(I17
I372
tp678
sS'08603'
p679
(I215
I1032
tp680
sS'08602'
p681
(I262
I1162
tp682
sS'08239'
p683
(I254
I1140
tp684
sS'08605'
p685
(I190
I930
tp686
sS'08463'
p687
(I140
I769
tp688
sS'08462'
p689
(I69
I496
tp690
sS'08348'
p691
(I238
I1089
tp692
sS'08349'
p693
(I319
I1416
tp694
sS'08469'
p695
(I194
I954
tp696
sS'08346'
p697
(I339
I1522
tp698
sS'08347'
p699
(I343
I1540
tp700
sS'08192'
p701
(I237
I1088
tp702
sS'08191'
p703
(I103
I654
tp704
sS'08025'
p705
(I158
I843
tp706
sS'08194'
p707
(I318
I1405
tp708
sS'08045'
p709
(I255
I1143
tp710
sS'08512'
p711
(I23
I391
tp712
sS'08511'
p713
(I8
I348
tp714
sS'08046'
p715
(I309
I1348
tp716
sS'08049'
p717
(I155
I824
tp718
sS'08048'
p719
(I184
I904
tp720
sS'08102'
p721
(I7
I335
tp722
sS'08103'
p723
(I11
I357
tp724
sS'08549'
p725
(I222
I1052
tp726
s.