(dp0
S'09205'
p1
(I97
I531
tp2
sS'09206'
p3
(I61
I385
tp4
sS'09207'
p5
(I74
I435
tp6
sS'09200'
p7
(I68
I411
tp8
sS'09201'
p9
(I49
I352
tp10
sS'09202'
p11
(I69
I413
tp12
sS'09203'
p13
(I76
I441
tp14
sS'09367'
p15
(I294
I1193
tp16
sS'09362'
p17
(I80
I457
tp18
sS'09015'
p19
(I105
I584
tp20
sS'09014'
p21
(I166
I811
tp22
sS'09017'
p23
(I340
I1375
tp24
sS'09016'
p25
(I126
I658
tp26
sS'09011'
p27
(I327
I1290
tp28
sS'09010'
p29
(I198
I911
tp30
sS'09013'
p31
(I202
I919
tp32
sS'09012'
p33
(I250
I1065
tp34
sS'09019'
p35
(I108
I596
tp36
sS'09018'
p37
(I151
I755
tp38
sS'09383'
p39
(I29
I292
tp40
sS'09060'
p41
(I3
I142
tp42
sS'09061'
p43
(I131
I685
tp44
sS'09062'
p45
(I256
I1077
tp46
sS'09063'
p47
(I101
I550
tp48
sS'09064'
p49
(I32
I310
tp50
sS'09065'
p51
(I163
I800
tp52
sS'09066'
p53
(I322
I1265
tp54
sS'09067'
p55
(I247
I1059
tp56
sS'09068'
p57
(I104
I582
tp58
sS'09402'
p59
(I220
I986
tp60
sS'09403'
p61
(I196
I902
tp62
sS'09400'
p63
(I122
I634
tp64
sS'09401'
p65
(I106
I589
tp66
sS'09407'
p67
(I179
I867
tp68
sS'09404'
p69
(I31
I309
tp70
sS'09408'
p71
(I257
I1078
tp72
sS'09409'
p73
(I115
I616
tp74
sS'09239'
p75
(I39
I326
tp76
sS'09238'
p77
(I87
I488
tp78
sS'09237'
p79
(I5
I171
tp80
sS'09236'
p81
(I25
I283
tp82
sS'09231'
p83
(I277
I1151
tp84
sS'09219'
p85
(I19
I265
tp86
sS'09233'
p87
(I184
I876
tp88
sS'09232'
p89
(I152
I755
tp90
sS'09193'
p91
(I116
I617
tp92
sS'09121'
p93
(I238
I1020
tp94
sS'09120'
p95
(I56
I368
tp96
sS'09123'
p97
(I73
I429
tp98
sS'09125'
p99
(I318
I1258
tp100
sS'09124'
p101
(I125
I648
tp102
sS'09126'
p103
(I99
I538
tp104
sS'09129'
p105
(I102
I566
tp106
sS'09128'
p107
(I79
I456
tp108
sS'09242'
p109
(I216
I955
tp110
sS'09243'
p111
(I269
I1112
tp112
sS'09244'
p113
(I274
I1135
tp114
sS'09245'
p115
(I210
I934
tp116
sS'09246'
p117
(I317
I1246
tp118
sS'09247'
p119
(I234
I1009
tp120
sS'09059'
p121
(I268
I1110
tp122
sS'09050'
p123
(I138
I725
tp124
sS'09053'
p125
(I110
I599
tp126
sS'09052'
p127
(I305
I1216
tp128
sS'09055'
p129
(I291
I1186
tp130
sS'09054'
p131
(I117
I620
tp132
sS'09057'
p133
(I60
I383
tp134
sS'09056'
p135
(I168
I815
tp136
sS'09209'
p137
(I72
I424
tp138
sS'09334'
p139
(I161
I795
tp140
sS'09152'
p141
(I51
I354
tp142
sS'09258'
p143
(I243
I1033
tp144
sS'09159'
p145
(I42
I337
tp146
sS'09176'
p147
(I197
I904
tp148
sS'09177'
p149
(I182
I871
tp150
sS'09174'
p151
(I65
I403
tp152
sS'09175'
p153
(I123
I636
tp154
sS'09172'
p155
(I81
I461
tp156
sS'09173'
p157
(I232
I1004
tp158
sS'09309'
p159
(I9
I195
tp160
sS'09304'
p161
(I300
I1206
tp162
sS'09307'
p163
(I7
I184
tp164
sS'09306'
p165
(I310
I1227
tp166
sS'09301'
p167
(I187
I880
tp168
sS'09302'
p169
(I70
I415
tp170
sS'09451'
p171
(I47
I349
tp172
sS'09450'
p173
(I4
I169
tp174
sS'09271'
p175
(I156
I783
tp176
sS'09270'
p177
(I259
I1083
tp178
sS'09273'
p179
(I121
I633
tp180
sS'09272'
p181
(I290
I1184
tp182
sS'09275'
p183
(I144
I738
tp184
sS'09274'
p185
(I306
I1217
tp186
sS'09277'
p187
(I287
I1175
tp188
sS'09276'
p189
(I37
I322
tp190
sS'09279'
p191
(I82
I474
tp192
sS'09278'
p193
(I288
I1179
tp194
sS'09452'
p195
(I134
I688
tp196
sS'09374'
p197
(I312
I1228
tp198
sS'09006'
p199
(I245
I1045
tp200
sS'09007'
p201
(I309
I1226
tp202
sS'09004'
p203
(I137
I722
tp204
sS'09005'
p205
(I223
I989
tp206
sS'09002'
p207
(I15
I229
tp208
sS'09003'
p209
(I165
I807
tp210
sS'09001'
p211
(I20
I267
tp212
sS'09008'
p213
(I298
I1205
tp214
sS'09009'
p215
(I330
I1308
tp216
sS'09099'
p217
(I212
I950
tp218
sS'09098'
p219
(I64
I396
tp220
sS'09095'
p221
(I293
I1193
tp222
sS'09094'
p223
(I324
I1267
tp224
sS'09097'
p225
(I111
I603
tp226
sS'09096'
p227
(I35
I322
tp228
sS'09091'
p229
(I252
I1070
tp230
sS'09090'
p231
(I157
I786
tp232
sS'09093'
p233
(I227
I995
tp234
sS'09092'
p235
(I311
I1228
tp236
sS'09439'
p237
(I124
I647
tp238
sS'09438'
p239
(I191
I886
tp240
sS'09437'
p241
(I221
I986
tp242
sS'09436'
p243
(I164
I800
tp244
sS'09435'
p245
(I266
I1104
tp246
sS'09434'
p247
(I249
I1063
tp248
sS'09433'
p249
(I92
I513
tp250
sS'09432'
p251
(I175
I848
tp252
sS'09431'
p253
(I188
I882
tp254
sS'09430'
p255
(I113
I613
tp256
sS'09185'
p257
(I30
I307
tp258
sS'09184'
p259
(I53
I361
tp260
sS'09183'
p261
(I28
I292
tp262
sS'09181'
p263
(I23
I282
tp264
sS'09229'
p265
(I254
I1073
tp266
sS'09226'
p267
(I75
I439
tp268
sS'09223'
p269
(I133
I687
tp270
sS'09220'
p271
(I224
I989
tp272
sS'09221'
p273
(I89
I496
tp274
sS'09132'
p275
(I240
I1029
tp276
sS'09133'
p277
(I100
I549
tp278
sS'09130'
p279
(I242
I1031
tp280
sS'09508'
p281
(I172
I825
tp282
sS'09134'
p283
(I296
I1199
tp284
sS'09135'
p285
(I233
I1008
tp286
sS'09503'
p287
(I158
I789
tp288
sS'09502'
p289
(I141
I730
tp290
sS'09501'
p291
(I145
I738
tp292
sS'09500'
p293
(I170
I816
tp294
sS'09507'
p295
(I217
I967
tp296
sS'09506'
p297
(I59
I382
tp298
sS'09504'
p299
(I225
I989
tp300
sS'09048'
p301
(I167
I815
tp302
sS'09042'
p303
(I21
I268
tp304
sS'09043'
p305
(I40
I327
tp306
sS'09040'
p307
(I261
I1088
tp308
sS'09041'
p309
(I328
I1294
tp310
sS'09046'
p311
(I281
I1162
tp312
sS'09044'
p313
(I332
I1316
tp314
sS'09293'
p315
(I214
I954
tp316
sS'09292'
p317
(I302
I1208
tp318
sS'09291'
p319
(I316
I1243
tp320
sS'09290'
p321
(I208
I932
tp322
sS'09297'
p323
(I335
I1331
tp324
sS'09296'
p325
(I109
I597
tp326
sS'09295'
p327
(I44
I342
tp328
sS'09294'
p329
(I244
I1044
tp330
sS'09299'
p331
(I297
I1199
tp332
sS'09298'
p333
(I325
I1271
tp334
sS'09228'
p335
(I345
I1474
tp336
sS'09340'
p337
(I66
I408
tp338
sS'09149'
p339
(I206
I924
tp340
sS'09148'
p341
(I132
I685
tp342
sS'09143'
p343
(I33
I314
tp344
sS'09140'
p345
(I209
I934
tp346
sS'09147'
p347
(I278
I1156
tp348
sS'09146'
p349
(I153
I767
tp350
sS'09145'
p351
(I140
I727
tp352
sS'09144'
p353
(I289
I1180
tp354
sS'09318'
p355
(I12
I203
tp356
sS'09319'
p357
(I265
I1104
tp358
sS'09316'
p359
(I6
I174
tp360
sS'09317'
p361
(I307
I1218
tp362
sS'09314'
p363
(I304
I1214
tp364
sS'09315'
p365
(I239
I1021
tp366
sS'09312'
p367
(I24
I282
tp368
sS'09313'
p369
(I237
I1019
tp370
sS'09310'
p371
(I341
I1382
tp372
sS'09311'
p373
(I94
I516
tp374
sS'09262'
p375
(I258
I1082
tp376
sS'09263'
p377
(I207
I924
tp378
sS'09260'
p379
(I308
I1219
tp380
sS'09261'
p381
(I219
I985
tp382
sS'09266'
p383
(I93
I516
tp384
sS'09267'
p385
(I17
I254
tp386
sS'09264'
p387
(I229
I997
tp388
sS'09265'
p389
(I246
I1052
tp390
sS'09268'
p391
(I201
I915
tp392
sS'09269'
p393
(I146
I742
tp394
sS'09033'
p395
(I251
I1067
tp396
sS'09032'
p397
(I303
I1211
tp398
sS'09031'
p399
(I185
I877
tp400
sS'09030'
p401
(I260
I1088
tp402
sS'09037'
p403
(I129
I682
tp404
sS'09036'
p405
(I194
I894
tp406
sS'09035'
p407
(I160
I795
tp408
sS'09034'
p409
(I171
I822
tp410
sS'09039'
p411
(I103
I579
tp412
sS'09038'
p413
(I136
I703
tp414
sS'09138'
p415
(I90
I499
tp416
sS'09139'
p417
(I176
I855
tp418
sS'09088'
p419
(I135
I695
tp420
sS'09089'
p421
(I255
I1075
tp422
sS'09086'
p423
(I276
I1151
tp424
sS'09087'
p425
(I315
I1238
tp426
sS'09084'
p427
(I85
I486
tp428
sS'09085'
p429
(I319
I1259
tp430
sS'09082'
p431
(I299
I1206
tp432
sS'09083'
p433
(I107
I592
tp434
sS'09081'
p435
(I344
I1455
tp436
sS'09428'
p437
(I338
I1344
tp438
sS'09429'
p439
(I77
I442
tp440
sS'09420'
p441
(I222
I987
tp442
sS'09421'
p443
(I301
I1206
tp444
sS'09422'
p445
(I231
I1001
tp446
sS'09423'
p447
(I334
I1322
tp448
sS'09426'
p449
(I346
I1544
tp450
sS'09427'
p451
(I183
I874
tp452
sS'09190'
p453
(I67
I411
tp454
sS'09191'
p455
(I54
I364
tp456
sS'09192'
p457
(I38
I324
tp458
sS'09218'
p459
(I128
I681
tp460
sS'09194'
p461
(I98
I535
tp462
sS'09195'
p463
(I130
I684
tp464
sS'09213'
p465
(I292
I1186
tp466
sS'09211'
p467
(I58
I381
tp468
sS'09210'
p469
(I57
I380
tp470
sS'09217'
p471
(I91
I506
tp472
sS'09216'
p473
(I174
I832
tp474
sS'09215'
p475
(I45
I343
tp476
sS'09214'
p477
(I295
I1197
tp478
sS'09514'
p479
(I96
I529
tp480
sS'09515'
p481
(I178
I864
tp482
sS'09516'
p483
(I169
I815
tp484
sS'09517'
p485
(I120
I628
tp486
sS'09510'
p487
(I112
I609
tp488
sS'09511'
p489
(I218
I970
tp490
sS'09512'
p491
(I230
I997
tp492
sS'09513'
p493
(I139
I725
tp494
sS'09518'
p495
(I62
I391
tp496
sS'09109'
p497
(I142
I733
tp498
sS'09107'
p499
(I46
I348
tp500
sS'09106'
p501
(I195
I897
tp502
sS'09105'
p503
(I273
I1133
tp504
sS'09104'
p505
(I118
I620
tp506
sS'09103'
p507
(I86
I486
tp508
sS'09102'
p509
(I27
I292
tp510
sS'09101'
p511
(I203
I920
tp512
sS'09100'
p513
(I271
I1130
tp514
sS'09288'
p515
(I200
I913
tp516
sS'09289'
p517
(I275
I1136
tp518
sS'09284'
p519
(I321
I1261
tp520
sS'09285'
p521
(I228
I995
tp522
sS'09286'
p523
(I280
I1161
tp524
sS'09287'
p525
(I63
I393
tp526
sS'09281'
p527
(I84
I477
tp528
sS'09282'
p529
(I181
I870
tp530
sS'09283'
p531
(I248
I1059
tp532
sS'09352'
p533
(I282
I1166
tp534
sS'09353'
p535
(I336
I1341
tp536
sS'09351'
p537
(I272
I1131
tp538
sS'09357'
p539
(I270
I1127
tp540
sS'09354'
p541
(I236
I1018
tp542
sS'09077'
p543
(I199
I911
tp544
sS'09076'
p545
(I314
I1235
tp546
sS'09075'
p547
(I235
I1015
tp548
sS'09074'
p549
(I279
I1158
tp550
sS'09073'
p551
(I253
I1071
tp552
sS'09072'
p553
(I155
I774
tp554
sS'09071'
p555
(I114
I614
tp556
sS'09070'
p557
(I204
I921
tp558
sS'09079'
p559
(I342
I1400
tp560
sS'09078'
p561
(I34
I320
tp562
sS'09131'
p563
(I267
I1107
tp564
sS'09411'
p565
(I88
I493
tp566
sS'09410'
p567
(I339
I1364
tp568
sS'09413'
p569
(I148
I743
tp570
sS'09412'
p571
(I154
I769
tp572
sS'09415'
p573
(I159
I793
tp574
sS'09414'
p575
(I186
I877
tp576
sS'09379'
p577
(I323
I1265
tp578
sS'09328'
p579
(I343
I1443
tp580
sS'09322'
p581
(I331
I1311
tp582
sS'09321'
p583
(I205
I923
tp584
sS'09320'
p585
(I313
I1232
tp586
sS'09326'
p587
(I10
I200
tp588
sS'09325'
p589
(I190
I886
tp590
sS'09370'
p591
(I226
I990
tp592
sS'09154'
p593
(I36
I322
tp594
sS'09156'
p595
(I119
I628
tp596
sS'09150'
p597
(I41
I337
tp598
sS'09259'
p599
(I320
I1259
tp600
sS'09153'
p601
(I50
I353
tp602
sS'09257'
p603
(I286
I1174
tp604
sS'09256'
p605
(I213
I951
tp606
sS'09255'
p607
(I83
I477
tp608
sS'09254'
p609
(I127
I663
tp610
sS'09253'
p611
(I52
I356
tp612
sS'09252'
p613
(I147
I743
tp614
sS'09251'
p615
(I192
I888
tp616
sS'09250'
p617
(I285
I1174
tp618
sS'09028'
p619
(I150
I754
tp620
sS'09029'
p621
(I180
I870
tp622
sS'09024'
p623
(I95
I528
tp624
sS'09025'
p625
(I43
I340
tp626
sS'09026'
p627
(I215
I955
tp628
sS'09027'
p629
(I264
I1101
tp630
sS'09020'
p631
(I283
I1169
tp632
sS'09021'
p633
(I71
I422
tp634
sS'09022'
p635
(I1
I118
tp636
sS'09023'
p637
(I2
I138
tp638
sS'09248'
p639
(I177
I858
tp640
sS'09240'
p641
(I173
I828
tp642
sS'09241'
p643
(I262
I1092
tp644
sS'43382'
p645
(I149
I745
tp646
sS'09165'
p647
(I329
I1298
tp648
sS'09164'
p649
(I263
I1094
tp650
sS'09167'
p651
(I78
I448
tp652
sS'09161'
p653
(I48
I351
tp654
sS'09160'
p655
(I16
I250
tp656
sS'09163'
p657
(I333
I1317
tp658
sS'09111'
p659
(I11
I202
tp660
sS'09112'
p661
(I26
I288
tp662
sS'09113'
p663
(I22
I274
tp664
sS'09114'
p665
(I8
I195
tp666
sS'09118'
p667
(I14
I225
tp668
sS'09119'
p669
(I55
I365
tp670
sS'09116'
p671
(I18
I257
tp672
sS'09448'
p673
(I337
I1343
tp674
sS'09449'
p675
(I189
I885
tp676
sS'09446'
p677
(I284
I1172
tp678
sS'09447'
p679
(I326
I1281
tp680
sS'09444'
p681
(I143
I736
tp682
sS'09445'
p683
(I193
I890
tp684
sS'09442'
p685
(I211
I944
tp686
sS'09443'
p687
(I162
I799
tp688
sS'09440'
p689
(I241
I1030
tp690
sS'09117'
p691
(I13
I222
tp692
s.