(dp0
S'10109'
p1
(I329
I1561
tp2
sS'10105'
p3
(I325
I1498
tp4
sS'10104'
p5
(I37
I369
tp6
sS'10107'
p7
(I49
I416
tp8
sS'10106'
p9
(I41
I385
tp10
sS'10101'
p11
(I221
I1058
tp12
sS'10100'
p13
(I287
I1324
tp14
sS'10103'
p15
(I64
I484
tp16
sS'10102'
p17
(I235
I1120
tp18
sS'10899'
p19
(I78
I545
tp20
sS'10898'
p21
(I303
I1381
tp22
sS'10893'
p23
(I102
I613
tp24
sS'10892'
p25
(I20
I309
tp26
sS'10891'
p27
(I39
I381
tp28
sS'10890'
p29
(I67
I500
tp30
sS'10895'
p31
(I342
I1633
tp32
sS'10894'
p33
(I341
I1627
tp34
sS'10206'
p35
(I293
I1337
tp36
sS'10207'
p37
(I59
I455
tp38
sS'10204'
p39
(I181
I920
tp40
sS'10205'
p41
(I286
I1322
tp42
sS'10202'
p43
(I140
I780
tp44
sS'10203'
p45
(I127
I708
tp46
sS'10200'
p47
(I126
I704
tp48
sS'10201'
p49
(I132
I729
tp50
sS'10208'
p51
(I275
I1253
tp52
sS'10209'
p53
(I157
I827
tp54
sS'10196'
p55
(I220
I1055
tp56
sS'10197'
p57
(I227
I1092
tp58
sS'10194'
p59
(I187
I938
tp60
sS'10195'
p61
(I217
I1050
tp62
sS'10963'
p63
(I2
I234
tp64
sS'10962'
p65
(I1
I138
tp66
sS'10961'
p67
(I10
I282
tp68
sS'10960'
p69
(I14
I296
tp70
sS'10198'
p71
(I206
I1017
tp72
sS'10199'
p73
(I60
I457
tp74
sS'10877'
p75
(I188
I943
tp76
sS'10804'
p77
(I156
I825
tp78
sS'10805'
p79
(I260
I1209
tp80
sS'10802'
p81
(I147
I796
tp82
sS'10803'
p83
(I291
I1334
tp84
sS'43378'
p85
(I300
I1368
tp86
sS'10141'
p87
(I178
I910
tp88
sS'10140'
p89
(I271
I1244
tp90
sS'10142'
p91
(I268
I1232
tp92
sS'10146'
p93
(I336
I1588
tp94
sS'10149'
p95
(I96
I593
tp96
sS'10028'
p97
(I231
I1109
tp98
sS'10029'
p99
(I250
I1174
tp100
sS'10026'
p101
(I124
I697
tp102
sS'10027'
p103
(I113
I660
tp104
sS'10024'
p105
(I54
I440
tp106
sS'10025'
p107
(I106
I621
tp108
sS'10022'
p109
(I195
I972
tp110
sS'10023'
p111
(I202
I1004
tp112
sS'10020'
p113
(I170
I879
tp114
sS'10021'
p115
(I193
I959
tp116
sS'10002'
p117
(I52
I425
tp118
sS'10003'
p119
(I233
I1115
tp120
sS'10163'
p121
(I34
I366
tp122
sS'10093'
p123
(I131
I723
tp124
sS'10097'
p125
(I149
I801
tp126
sS'10096'
p127
(I142
I782
tp128
sS'10094'
p129
(I6
I257
tp130
sS'10099'
p131
(I301
I1369
tp132
sS'10098'
p133
(I273
I1249
tp134
sS'10938'
p135
(I42
I385
tp136
sS'10939'
p137
(I182
I923
tp138
sS'43326'
p139
(I171
I882
tp140
sS'10934'
p141
(I35
I367
tp142
sS'10935'
p143
(I201
I1000
tp144
sS'10936'
p145
(I204
I1006
tp146
sS'10937'
p147
(I163
I843
tp148
sS'10931'
p149
(I40
I382
tp150
sS'10932'
p151
(I18
I301
tp152
sS'10933'
p153
(I65
I485
tp154
sS'10062'
p155
(I105
I620
tp156
sS'10063'
p157
(I128
I712
tp158
sS'10060'
p159
(I9
I274
tp160
sS'10061'
p161
(I8
I267
tp162
sS'10066'
p163
(I19
I303
tp164
sS'10067'
p165
(I23
I313
tp166
sS'10064'
p167
(I166
I861
tp168
sS'10065'
p169
(I158
I831
tp170
sS'10068'
p171
(I77
I543
tp172
sS'10069'
p173
(I84
I567
tp174
sS'10193'
p175
(I310
I1412
tp176
sS'10884'
p177
(I94
I591
tp178
sS'10885'
p179
(I62
I464
tp180
sS'10886'
p181
(I88
I580
tp182
sS'10887'
p183
(I129
I712
tp184
sS'10880'
p185
(I160
I836
tp186
sS'10881'
p187
(I169
I870
tp188
sS'10882'
p189
(I100
I602
tp190
sS'10883'
p191
(I86
I570
tp192
sS'10116'
p193
(I155
I821
tp194
sS'10117'
p195
(I38
I370
tp196
sS'10114'
p197
(I288
I1325
tp198
sS'10115'
p199
(I199
I995
tp200
sS'10112'
p201
(I44
I397
tp202
sS'10889'
p203
(I150
I805
tp204
sS'10110'
p205
(I58
I452
tp206
sS'10111'
p207
(I72
I509
tp208
sS'10972'
p209
(I302
I1372
tp210
sS'10973'
p211
(I31
I358
tp212
sS'10974'
p213
(I318
I1446
tp214
sS'10975'
p215
(I297
I1356
tp216
sS'10976'
p217
(I107
I626
tp218
sS'10977'
p219
(I320
I1454
tp220
sS'10978'
p221
(I298
I1360
tp222
sS'10979'
p223
(I121
I683
tp224
sS'10879'
p225
(I143
I782
tp226
sS'10878'
p227
(I172
I883
tp228
sS'10871'
p229
(I252
I1181
tp230
sS'10870'
p231
(I229
I1100
tp232
sS'10873'
p233
(I85
I569
tp234
sS'10872'
p235
(I216
I1046
tp236
sS'10875'
p237
(I50
I421
tp238
sS'10874'
p239
(I95
I592
tp240
sS'43297'
p241
(I338
I1597
tp242
sS'10876'
p243
(I80
I553
tp244
sS'10998'
p245
(I76
I532
tp246
sS'10905'
p247
(I175
I904
tp248
sS'10904'
p249
(I283
I1298
tp250
sS'10907'
p251
(I331
I1571
tp252
sS'10906'
p253
(I284
I1298
tp254
sS'10901'
p255
(I189
I946
tp256
sS'10900'
p257
(I91
I587
tp258
sS'10903'
p259
(I228
I1098
tp260
sS'10902'
p261
(I133
I732
tp262
sS'10909'
p263
(I174
I903
tp264
sS'10908'
p265
(I313
I1422
tp266
sS'10859'
p267
(I138
I771
tp268
sS'10858'
p269
(I68
I504
tp270
sS'10152'
p271
(I123
I688
tp272
sS'10153'
p273
(I103
I617
tp274
sS'10150'
p275
(I319
I1453
tp276
sS'10158'
p277
(I247
I1168
tp278
sS'10019'
p279
(I73
I512
tp280
sS'10018'
p281
(I12
I291
tp282
sS'10013'
p283
(I200
I998
tp284
sS'10012'
p285
(I208
I1028
tp286
sS'10011'
p287
(I117
I676
tp288
sS'10010'
p289
(I61
I460
tp290
sS'10017'
p291
(I262
I1212
tp292
sS'10016'
p293
(I240
I1145
tp294
sS'10015'
p295
(I48
I406
tp296
sS'10014'
p297
(I11
I285
tp298
sS'10088'
p299
(I327
I1514
tp300
sS'10089'
p301
(I269
I1237
tp302
sS'10084'
p303
(I98
I596
tp304
sS'10085'
p305
(I265
I1221
tp306
sS'10086'
p307
(I183
I927
tp308
sS'10087'
p309
(I219
I1054
tp310
sS'10080'
p311
(I254
I1186
tp312
sS'10081'
p313
(I294
I1339
tp314
sS'10082'
p315
(I234
I1115
tp316
sS'10083'
p317
(I259
I1209
tp318
sS'10178'
p319
(I272
I1248
tp320
sS'10949'
p321
(I197
I976
tp322
sS'10948'
p323
(I28
I344
tp324
sS'10940'
p325
(I321
I1467
tp326
sS'10943'
p327
(I24
I329
tp328
sS'10942'
p329
(I335
I1587
tp330
sS'10945'
p331
(I238
I1144
tp332
sS'10944'
p333
(I13
I294
tp334
sS'10947'
p335
(I82
I558
tp336
sS'10946'
p337
(I109
I629
tp338
sS'10059'
p339
(I153
I815
tp340
sS'10058'
p341
(I45
I403
tp342
sS'10057'
p343
(I74
I515
tp344
sS'10056'
p345
(I5
I251
tp346
sS'10055'
p347
(I236
I1125
tp348
sS'10054'
p349
(I198
I993
tp350
sS'10053'
p351
(I214
I1039
tp352
sS'10052'
p353
(I115
I669
tp354
sS'10051'
p355
(I159
I836
tp356
sS'10050'
p357
(I135
I745
tp358
sS'10129'
p359
(I306
I1397
tp360
sS'10128'
p361
(I330
I1566
tp362
sS'10123'
p363
(I339
I1599
tp364
sS'10122'
p365
(I285
I1306
tp366
sS'10121'
p367
(I282
I1285
tp368
sS'10120'
p369
(I165
I852
tp370
sS'10228'
p371
(I63
I480
tp372
sS'10229'
p373
(I111
I653
tp374
sS'10224'
p375
(I97
I594
tp376
sS'10225'
p377
(I15
I299
tp378
sS'10226'
p379
(I173
I903
tp380
sS'10227'
p381
(I232
I1111
tp382
sS'10220'
p383
(I263
I1214
tp384
sS'10221'
p385
(I83
I564
tp386
sS'10222'
p387
(I26
I333
tp388
sS'10223'
p389
(I66
I487
tp390
sS'10989'
p391
(I161
I837
tp392
sS'10988'
p393
(I185
I930
tp394
sS'10985'
p395
(I119
I679
tp396
sS'10984'
p397
(I69
I504
tp398
sS'43327'
p399
(I146
I792
tp400
sS'10986'
p401
(I137
I765
tp402
sS'10981'
p403
(I299
I1360
tp404
sS'10980'
p405
(I203
I1005
tp406
sS'10983'
p407
(I90
I584
tp408
sS'10982'
p409
(I57
I451
tp410
sS'10868'
p411
(I179
I918
tp412
sS'10869'
p413
(I141
I780
tp414
sS'10862'
p415
(I316
I1442
tp416
sS'10863'
p417
(I177
I906
tp418
sS'10860'
p419
(I307
I1399
tp420
sS'10861'
p421
(I314
I1426
tp422
sS'10866'
p423
(I125
I698
tp424
sS'10867'
p425
(I136
I763
tp426
sS'10864'
p427
(I328
I1526
tp428
sS'10865'
p429
(I130
I714
tp430
sS'10916'
p431
(I210
I1035
tp432
sS'10917'
p433
(I184
I930
tp434
sS'10914'
p435
(I315
I1431
tp436
sS'10915'
p437
(I280
I1274
tp438
sS'10912'
p439
(I304
I1390
tp440
sS'10913'
p441
(I245
I1162
tp442
sS'10910'
p443
(I289
I1325
tp444
sS'10911'
p445
(I274
I1251
tp446
sS'10918'
p447
(I308
I1401
tp448
sS'10919'
p449
(I326
I1511
tp450
sS'43325'
p451
(I168
I865
tp452
sS'10192'
p453
(I311
I1413
tp454
sS'10987'
p455
(I148
I800
tp456
sS'10004'
p457
(I323
I1484
tp458
sS'10005'
p459
(I317
I1446
tp460
sS'10006'
p461
(I334
I1581
tp462
sS'10007'
p463
(I340
I1600
tp464
sS'10000'
p465
(I337
I1593
tp466
sS'10001'
p467
(I296
I1354
tp468
sS'10169'
p469
(I120
I681
tp470
sS'10168'
p471
(I305
I1391
tp472
sS'10167'
p473
(I332
I1577
tp474
sS'10166'
p475
(I333
I1579
tp476
sS'10165'
p477
(I343
I1657
tp478
sS'10164'
p479
(I241
I1149
tp480
sS'10008'
p481
(I258
I1201
tp482
sS'10009'
p483
(I230
I1103
tp484
sS'10118'
p485
(I25
I332
tp486
sS'10119'
p487
(I249
I1173
tp488
sS'10215'
p489
(I17
I301
tp490
sS'10214'
p491
(I4
I241
tp492
sS'10217'
p493
(I53
I427
tp494
sS'10216'
p495
(I7
I263
tp496
sS'10211'
p497
(I43
I395
tp498
sS'10210'
p499
(I21
I310
tp500
sS'10213'
p501
(I79
I548
tp502
sS'10212'
p503
(I46
I403
tp504
sS'10219'
p505
(I279
I1273
tp506
sS'10218'
p507
(I27
I342
tp508
sS'10185'
p509
(I162
I839
tp510
sS'10184'
p511
(I152
I811
tp512
sS'10187'
p513
(I215
I1046
tp514
sS'10186'
p515
(I118
I679
tp516
sS'10181'
p517
(I33
I363
tp518
sS'10180'
p519
(I266
I1228
tp520
sS'10183'
p521
(I176
I905
tp522
sS'10182'
p523
(I226
I1087
tp524
sS'10888'
p525
(I144
I783
tp526
sS'10189'
p527
(I248
I1172
tp528
sS'10188'
p529
(I251
I1178
tp530
sS'10113'
p531
(I47
I404
tp532
sS'10958'
p533
(I3
I237
tp534
sS'10959'
p535
(I22
I311
tp536
sS'10952'
p537
(I51
I424
tp538
sS'10953'
p539
(I257
I1194
tp540
sS'10950'
p541
(I191
I947
tp542
sS'10951'
p543
(I36
I368
tp544
sS'10956'
p545
(I32
I359
tp546
sS'10957'
p547
(I16
I299
tp548
sS'10954'
p549
(I295
I1352
tp550
sS'10955'
p551
(I192
I948
tp552
sS'10048'
p553
(I29
I349
tp554
sS'10049'
p555
(I104
I618
tp556
sS'10179'
p557
(I243
I1151
tp558
sS'10040'
p559
(I30
I356
tp560
sS'10041'
p561
(I87
I580
tp562
sS'10042'
p563
(I112
I654
tp564
sS'10043'
p565
(I134
I738
tp566
sS'10044'
p567
(I164
I852
tp568
sS'10045'
p569
(I270
I1244
tp570
sS'10046'
p571
(I256
I1191
tp572
sS'10047'
p573
(I278
I1263
tp574
sS'10079'
p575
(I190
I947
tp576
sS'10078'
p577
(I207
I1020
tp578
sS'10134'
p579
(I154
I815
tp580
sS'10136'
p581
(I194
I961
tp582
sS'10137'
p583
(I108
I627
tp584
sS'10130'
p585
(I56
I443
tp586
sS'10131'
p587
(I218
I1052
tp588
sS'10132'
p589
(I255
I1188
tp590
sS'10138'
p591
(I116
I672
tp592
sS'10039'
p593
(I244
I1161
tp594
sS'10038'
p595
(I224
I1070
tp596
sS'10035'
p597
(I211
I1036
tp598
sS'10034'
p599
(I114
I666
tp600
sS'10037'
p601
(I237
I1135
tp602
sS'10036'
p603
(I180
I920
tp604
sS'10031'
p605
(I292
I1335
tp606
sS'10030'
p607
(I242
I1150
tp608
sS'10033'
p609
(I139
I780
tp610
sS'10032'
p611
(I71
I508
tp612
sS'10857'
p613
(I167
I865
tp614
sS'10856'
p615
(I151
I809
tp616
sS'10855'
p617
(I223
I1068
tp618
sS'10854'
p619
(I99
I602
tp620
sS'10853'
p621
(I81
I556
tp622
sS'10852'
p623
(I92
I588
tp624
sS'10851'
p625
(I70
I505
tp626
sS'10994'
p627
(I239
I1144
tp628
sS'10992'
p629
(I264
I1216
tp630
sS'10993'
p631
(I276
I1255
tp632
sS'10990'
p633
(I186
I931
tp634
sS'10991'
p635
(I222
I1059
tp636
sS'10923'
p637
(I212
I1038
tp638
sS'10922'
p639
(I209
I1031
tp640
sS'10921'
p641
(I196
I974
tp642
sS'10920'
p643
(I246
I1163
tp644
sS'10927'
p645
(I110
I643
tp646
sS'10926'
p647
(I89
I583
tp648
sS'10925'
p649
(I145
I785
tp650
sS'10924'
p651
(I225
I1083
tp652
sS'10929'
p653
(I213
I1038
tp654
sS'10928'
p655
(I75
I526
tp656
sS'10071'
p657
(I267
I1232
tp658
sS'10070'
p659
(I253
I1186
tp660
sS'10073'
p661
(I205
I1009
tp662
sS'10072'
p663
(I101
I603
tp664
sS'10075'
p665
(I290
I1326
tp666
sS'10074'
p667
(I261
I1210
tp668
sS'10077'
p669
(I55
I442
tp670
sS'10076'
p671
(I281
I1278
tp672
sS'10170'
p673
(I324
I1492
tp674
sS'10171'
p675
(I322
I1480
tp676
sS'10173'
p677
(I277
I1257
tp678
sS'10174'
p679
(I309
I1407
tp680
sS'10175'
p681
(I312
I1422
tp682
sS'10176'
p683
(I93
I589
tp684
sS'10177'
p685
(I122
I684
tp686
s.