(dp0
S'11829'
p1
(I665
I2393
tp2
sS'11828'
p3
(I548
I2006
tp4
sS'11825'
p5
(I172
I1002
tp6
sS'11824'
p7
(I517
I1956
tp8
sS'11827'
p9
(I212
I1109
tp10
sS'11826'
p11
(I740
I2627
tp12
sS'11821'
p13
(I325
I1466
tp14
sS'11820'
p15
(I540
I1995
tp16
sS'11823'
p17
(I393
I1641
tp18
sS'11822'
p19
(I492
I1882
tp20
sS'11540'
p21
(I360
I1558
tp22
sS'11989'
p23
(I505
I1924
tp24
sS'11546'
p25
(I673
I2408
tp26
sS'11547'
p27
(I473
I1832
tp28
sS'11982'
p29
(I715
I2555
tp30
sS'11983'
p31
(I821
I3271
tp32
sS'11980'
p33
(I343
I1509
tp34
sS'11981'
p35
(I379
I1592
tp36
sS'11986'
p37
(I90
I763
tp38
sS'11987'
p39
(I156
I958
tp40
sS'11984'
p41
(I240
I1197
tp42
sS'11985'
p43
(I512
I1948
tp44
sS'11380'
p45
(I739
I2622
tp46
sS'11381'
p47
(I744
I2633
tp48
sS'11269'
p49
(I580
I2098
tp50
sS'11268'
p51
(I714
I2554
tp52
sS'11384'
p53
(I810
I2921
tp54
sS'11385'
p55
(I809
I2911
tp56
sS'11386'
p57
(I808
I2909
tp58
sS'11387'
p59
(I803
I2853
tp60
sS'11263'
p61
(I21
I494
tp62
sS'11261'
p63
(I229
I1165
tp64
sS'11260'
p65
(I61
I694
tp66
sS'11267'
p67
(I134
I882
tp68
sS'11266'
p69
(I39
I595
tp70
sS'11265'
p71
(I163
I980
tp72
sS'11264'
p73
(I495
I1888
tp74
sS'11858'
p75
(I382
I1609
tp76
sS'11859'
p77
(I458
I1790
tp78
sS'11913'
p79
(I549
I2013
tp80
sS'11912'
p81
(I702
I2505
tp82
sS'11915'
p83
(I648
I2316
tp84
sS'11914'
p85
(I532
I1987
tp86
sS'11917'
p87
(I242
I1210
tp88
sS'11916'
p89
(I370
I1575
tp90
sS'11919'
p91
(I303
I1379
tp92
sS'11918'
p93
(I161
I969
tp94
sS'11852'
p95
(I716
I2558
tp96
sS'11853'
p97
(I644
I2302
tp98
sS'11854'
p99
(I121
I862
tp100
sS'11855'
p101
(I32
I560
tp102
sS'11856'
p103
(I267
I1276
tp104
sS'11857'
p105
(I450
I1768
tp106
sS'11182'
p107
(I727
I2593
tp108
sS'11180'
p109
(I671
I2408
tp110
sS'11181'
p111
(I664
I2381
tp112
sS'11184'
p113
(I655
I2340
tp114
sS'11988'
p115
(I693
I2476
tp116
sS'11137'
p117
(I218
I1124
tp118
sS'11136'
p119
(I219
I1125
tp120
sS'11135'
p121
(I274
I1300
tp122
sS'11134'
p123
(I761
I2706
tp124
sS'11131'
p125
(I586
I2115
tp126
sS'11130'
p127
(I550
I2014
tp128
sS'11548'
p129
(I745
I2639
tp130
sS'11138'
p131
(I110
I818
tp132
sS'11549'
p133
(I569
I2063
tp134
sS'11734'
p135
(I721
I2577
tp136
sS'11683'
p137
(I785
I2791
tp138
sS'11442'
p139
(I183
I1030
tp140
sS'11768'
p141
(I259
I1256
tp142
sS'11769'
p143
(I332
I1486
tp144
sS'11447'
p145
(I177
I1016
tp146
sS'11446'
p147
(I58
I678
tp148
sS'11445'
p149
(I562
I2051
tp150
sS'11444'
p151
(I437
I1749
tp152
sS'11762'
p153
(I164
I984
tp154
sS'11763'
p155
(I365
I1563
tp156
sS'11760'
p157
(I679
I2430
tp158
sS'11448'
p159
(I142
I891
tp160
sS'11766'
p161
(I348
I1521
tp162
sS'11767'
p163
(I301
I1374
tp164
sS'11764'
p165
(I438
I1749
tp166
sS'11765'
p167
(I231
I1170
tp168
sS'11667'
p169
(I787
I2793
tp170
sS'31008'
p171
(I380
I1595
tp172
sS'31005'
p173
(I420
I1697
tp174
sS'31007'
p175
(I430
I1728
tp176
sS'31006'
p177
(I443
I1760
tp178
sS'31001'
p179
(I444
I1761
tp180
sS'11382'
p181
(I757
I2697
tp182
sS'31002'
p183
(I298
I1369
tp184
sS'11383'
p185
(I738
I2621
tp186
sS'11399'
p187
(I798
I2835
tp188
sS'11003'
p189
(I27
I538
tp190
sS'11001'
p191
(I22
I495
tp192
sS'11007'
p193
(I455
I1779
tp194
sS'11006'
p195
(I408
I1679
tp196
sS'11005'
p197
(I509
I1936
tp198
sS'11004'
p199
(I12
I461
tp200
sS'11009'
p201
(I381
I1605
tp202
sS'11008'
p203
(I511
I1942
tp204
sS'11089'
p205
(I353
I1533
tp206
sS'11616'
p207
(I9
I452
tp208
sS'11617'
p209
(I16
I469
tp210
sS'11614'
p211
(I253
I1237
tp212
sS'11088'
p213
(I388
I1631
tp214
sS'11613'
p215
(I208
I1101
tp216
sS'11398'
p217
(I796
I2827
tp218
sS'11618'
p219
(I695
I2488
tp220
sS'11948'
p221
(I816
I3062
tp222
sS'11949'
p223
(I772
I2748
tp224
sS'11946'
p225
(I119
I857
tp226
sS'11947'
p227
(I143
I892
tp228
sS'11944'
p229
(I780
I2774
tp230
sS'11945'
p231
(I822
I3303
tp232
sS'11943'
p233
(I266
I1274
tp234
sS'11940'
p235
(I819
I3184
tp236
sS'11941'
p237
(I364
I1562
tp238
sS'11344'
p239
(I742
I2629
tp240
sS'11345'
p241
(I668
I2397
tp242
sS'11669'
p243
(I593
I2136
tp244
sS'11228'
p245
(I180
I1019
tp246
sS'11226'
p247
(I669
I2403
tp248
sS'11225'
p249
(I319
I1436
tp250
sS'11224'
p251
(I493
I1886
tp252
sS'11223'
p253
(I395
I1646
tp254
sS'11222'
p255
(I157
I962
tp256
sS'11221'
p257
(I677
I2420
tp258
sS'11220'
p259
(I222
I1139
tp260
sS'11911'
p261
(I614
I2205
tp262
sS'11910'
p263
(I718
I2559
tp264
sS'11778'
p265
(I751
I2661
tp266
sS'11084'
p267
(I622
I2229
tp268
sS'11850'
p269
(I374
I1585
tp270
sS'11851'
p271
(I621
I2225
tp272
sS'11751'
p273
(I425
I1716
tp274
sS'11533'
p275
(I514
I1952
tp276
sS'11531'
p277
(I265
I1269
tp278
sS'11530'
p279
(I189
I1042
tp280
sS'11537'
p281
(I270
I1287
tp282
sS'11701'
p283
(I576
I2089
tp284
sS'11861'
p285
(I264
I1267
tp286
sS'11860'
p287
(I269
I1283
tp288
sS'11863'
p289
(I640
I2282
tp290
sS'11862'
p291
(I225
I1146
tp292
sS'11865'
p293
(I419
I1697
tp294
sS'11864'
p295
(I503
I1919
tp296
sS'11867'
p297
(I448
I1766
tp298
sS'11866'
p299
(I530
I1977
tp300
sS'11869'
p301
(I541
I1996
tp302
sS'11868'
p303
(I700
I2503
tp304
sS'11647'
p305
(I762
I2707
tp306
sS'11407'
p307
(I747
I2647
tp308
sS'11406'
p309
(I729
I2596
tp310
sS'11403'
p311
(I766
I2734
tp312
sS'11402'
p313
(I775
I2752
tp314
sS'11401'
p315
(I371
I1577
tp316
sS'11400'
p317
(I434
I1743
tp318
sS'11409'
p319
(I797
I2833
tp320
sS'11408'
p321
(I800
I2842
tp322
sS'11458'
p323
(I14
I467
tp324
sS'43392'
p325
(I795
I2815
tp326
sS'11590'
p327
(I556
I2034
tp328
sS'11047'
p329
(I376
I1589
tp330
sS'11046'
p331
(I320
I1438
tp332
sS'11045'
p333
(I204
I1088
tp334
sS'11044'
p335
(I200
I1075
tp336
sS'11043'
p337
(I315
I1429
tp338
sS'11040'
p339
(I491
I1882
tp340
sS'11049'
p341
(I705
I2512
tp342
sS'11048'
p343
(I698
I2499
tp344
sS'11168'
p345
(I706
I2522
tp346
sS'11164'
p347
(I188
I1041
tp348
sS'11165'
p349
(I43
I619
tp350
sS'11167'
p351
(I709
I2533
tp352
sS'11161'
p353
(I94
I776
tp354
sS'11162'
p355
(I120
I861
tp356
sS'11163'
p357
(I140
I890
tp358
sS'11713'
p359
(I209
I1106
tp360
sS'11712'
p361
(I145
I905
tp362
sS'11711'
p363
(I331
I1480
tp364
sS'11710'
p365
(I257
I1254
tp366
sS'11717'
p367
(I635
I2264
tp368
sS'11716'
p369
(I615
I2207
tp370
sS'11715'
p371
(I351
I1524
tp372
sS'11714'
p373
(I651
I2320
tp374
sS'11653'
p375
(I428
I1727
tp376
sS'11719'
p377
(I520
I1959
tp378
sS'11718'
p379
(I306
I1392
tp380
sS'11656'
p381
(I793
I2810
tp382
sS'11657'
p383
(I748
I2647
tp384
sS'11654'
p385
(I104
I806
tp386
sS'11655'
p387
(I565
I2053
tp388
sS'11308'
p389
(I666
I2394
tp390
sS'11300'
p391
(I347
I1513
tp392
sS'11301'
p393
(I323
I1463
tp394
sS'11302'
p395
(I154
I952
tp396
sS'11303'
p397
(I454
I1777
tp398
sS'11304'
p399
(I561
I2049
tp400
sS'11305'
p401
(I521
I1960
tp402
sS'11306'
p403
(I600
I2159
tp404
sS'31011'
p405
(I410
I1685
tp406
sS'31031'
p407
(I825
I3404
tp408
sS'11836'
p409
(I692
I2475
tp410
sS'11837'
p411
(I504
I1923
tp412
sS'11834'
p413
(I594
I2143
tp414
sS'11835'
p415
(I597
I2145
tp416
sS'11832'
p417
(I583
I2104
tp418
sS'11833'
p419
(I631
I2259
tp420
sS'11830'
p421
(I754
I2683
tp422
sS'11831'
p423
(I618
I2217
tp424
sS'11274'
p425
(I35
I576
tp426
sS'11275'
p427
(I41
I605
tp428
sS'11276'
p429
(I65
I701
tp430
sS'11277'
p431
(I66
I702
tp432
sS'11270'
p433
(I129
I873
tp434
sS'11271'
p435
(I148
I930
tp436
sS'11272'
p437
(I26
I528
tp438
sS'11578'
p439
(I326
I1468
tp440
sS'11577'
p441
(I117
I853
tp442
sS'11576'
p443
(I6
I432
tp444
sS'11575'
p445
(I103
I800
tp446
sS'11574'
p447
(I20
I492
tp448
sS'11278'
p449
(I211
I1109
tp450
sS'11279'
p451
(I194
I1056
tp452
sS'11570'
p453
(I153
I948
tp454
sS'11379'
p455
(I763
I2713
tp456
sS'11378'
p457
(I758
I2700
tp458
sS'11374'
p459
(I463
I1803
tp460
sS'11376'
p461
(I545
I2002
tp462
sS'11371'
p463
(I752
I2678
tp464
sS'11370'
p465
(I786
I2792
tp466
sS'11373'
p467
(I720
I2571
tp468
sS'11372'
p469
(I689
I2462
tp470
sS'11902'
p471
(I774
I2749
tp472
sS'11903'
p473
(I563
I2052
tp474
sS'11900'
p475
(I667
I2395
tp476
sS'11901'
p477
(I728
I2594
tp478
sS'11906'
p479
(I717
I2559
tp480
sS'11907'
p481
(I599
I2156
tp482
sS'11904'
p483
(I439
I1751
tp484
sS'11905'
p485
(I713
I2552
tp486
sS'11908'
p487
(I629
I2255
tp488
sS'11909'
p489
(I464
I1806
tp490
sS'11881'
p491
(I519
I1958
tp492
sS'11880'
p493
(I159
I965
tp494
sS'11887'
p495
(I750
I2654
tp496
sS'11886'
p497
(I192
I1051
tp498
sS'11885'
p499
(I167
I992
tp500
sS'11884'
p501
(I327
I1478
tp502
sS'11889'
p503
(I522
I1960
tp504
sS'11888'
p505
(I571
I2078
tp506
sS'11289'
p507
(I502
I1911
tp508
sS'11288'
p509
(I375
I1587
tp510
sS'11349'
p511
(I633
I2264
tp512
sS'44055'
p513
(I807
I2879
tp514
sS'11281'
p515
(I317
I1430
tp516
sS'11280'
p517
(I321
I1441
tp518
sS'11283'
p519
(I589
I2129
tp520
sS'11282'
p521
(I582
I2102
tp522
sS'11285'
p523
(I457
I1782
tp524
sS'11284'
p525
(I734
I2615
tp526
sS'11287'
p527
(I220
I1125
tp528
sS'11286'
p529
(I642
I2295
tp530
sS'11120'
p531
(I29
I541
tp532
sS'11122'
p533
(I165
I986
tp534
sS'11123'
p535
(I248
I1223
tp536
sS'11124'
p537
(I528
I1973
tp538
sS'11125'
p539
(I427
I1725
tp540
sS'11126'
p541
(I396
I1647
tp542
sS'11128'
p543
(I406
I1677
tp544
sS'11018'
p545
(I7
I448
tp546
sS'11081'
p547
(I645
I2303
tp548
sS'11080'
p549
(I625
I2238
tp550
sS'11087'
p551
(I168
I995
tp552
sS'11086'
p553
(I95
I777
tp554
sS'11019'
p555
(I3
I354
tp556
sS'11757'
p557
(I585
I2113
tp558
sS'11756'
p559
(I344
I1510
tp560
sS'11755'
p561
(I109
I816
tp562
sS'11754'
p563
(I87
I762
tp564
sS'11753'
p565
(I236
I1191
tp566
sS'11752'
p567
(I508
I1931
tp568
sS'11698'
p569
(I77
I733
tp570
sS'11750'
p571
(I131
I876
tp572
sS'11696'
p573
(I60
I692
tp574
sS'11697'
p575
(I377
I1590
tp576
sS'11695'
p577
(I59
I691
tp578
sS'11693'
p579
(I523
I1961
tp580
sS'11759'
p581
(I309
I1401
tp582
sS'11758'
p583
(I243
I1214
tp584
sS'11595'
p585
(I277
I1303
tp586
sS'11594'
p587
(I186
I1037
tp588
sS'11597'
p589
(I435
I1743
tp590
sS'11596'
p591
(I206
I1095
tp592
sS'11591'
p593
(I1
I275
tp594
sS'11459'
p595
(I149
I932
tp596
sS'11593'
p597
(I132
I878
tp598
sS'11454'
p599
(I527
I1969
tp600
sS'11555'
p601
(I675
I2412
tp602
sS'11599'
p603
(I641
I2294
tp604
sS'11457'
p605
(I33
I564
tp606
sS'11450'
p607
(I560
I2048
tp608
sS'11451'
p609
(I554
I2028
tp610
sS'11452'
p611
(I516
I1956
tp612
sS'11453'
p613
(I362
I1559
tp614
sS'31018'
p615
(I474
I1833
tp616
sS'31019'
p617
(I755
I2685
tp618
sS'31016'
p619
(I221
I1135
tp620
sS'31017'
p621
(I329
I1479
tp622
sS'31014'
p623
(I533
I1987
tp624
sS'31015'
p625
(I624
I2233
tp626
sS'31012'
p627
(I314
I1428
tp628
sS'31013'
p629
(I387
I1628
tp630
sS'31010'
p631
(I412
I1686
tp632
sS'11158'
p633
(I166
I992
tp634
sS'11490'
p635
(I619
I2218
tp636
sS'11990'
p637
(I581
I2099
tp638
sS'11492'
p639
(I537
I1993
tp640
sS'11154'
p641
(I769
I2737
tp642
sS'11157'
p643
(I45
I631
tp644
sS'11156'
p645
(I201
I1075
tp646
sS'11151'
p647
(I102
I799
tp648
sS'11150'
p649
(I235
I1185
tp650
sS'11152'
p651
(I113
I835
tp652
sS'11015'
p653
(I262
I1264
tp654
sS'11010'
p655
(I490
I1881
tp656
sS'11011'
p657
(I50
I659
tp658
sS'11012'
p659
(I42
I614
tp660
sS'11013'
p661
(I122
I863
tp662
sS'11623'
p663
(I135
I882
tp664
sS'11622'
p665
(I276
I1302
tp666
sS'11621'
p667
(I289
I1343
tp668
sS'11620'
p669
(I305
I1392
tp670
sS'11626'
p671
(I144
I901
tp672
sS'11625'
p673
(I731
I2609
tp674
sS'11624'
p675
(I683
I2445
tp676
sS'11497'
p677
(I596
I2144
tp678
sS'11979'
p679
(I445
I1762
tp680
sS'11978'
p681
(I710
I2538
tp682
sS'11973'
p683
(I707
I2528
tp684
sS'11972'
p685
(I637
I2276
tp686
sS'11082'
p687
(I603
I2173
tp688
sS'11970'
p689
(I69
I711
tp690
sS'11977'
p691
(I436
I1746
tp692
sS'11976'
p693
(I268
I1277
tp694
sS'11975'
p695
(I681
I2438
tp696
sS'11974'
p697
(I697
I2497
tp698
sS'11238'
p699
(I239
I1196
tp700
sS'11239'
p701
(I283
I1321
tp702
sS'11333'
p703
(I251
I1229
tp704
sS'11335'
p705
(I378
I1592
tp706
sS'11334'
p707
(I346
I1512
tp708
sS'11337'
p709
(I100
I790
tp710
sS'11339'
p711
(I605
I2182
tp712
sS'11338'
p713
(I93
I773
tp714
sS'11232'
p715
(I112
I831
tp716
sS'11233'
p717
(I440
I1754
tp718
sS'11234'
p719
(I151
I941
tp720
sS'11235'
p721
(I54
I667
tp722
sS'11236'
p723
(I133
I881
tp724
sS'11237'
p725
(I646
I2306
tp726
sS'11568'
p727
(I191
I1047
tp728
sS'11391'
p729
(I736
I2618
tp730
sS'11200'
p731
(I234
I1176
tp732
sS'11390'
p733
(I564
I2053
tp734
sS'11207'
p735
(I442
I1760
tp736
sS'11525'
p737
(I411
I1686
tp738
sS'11526'
p739
(I373
I1582
tp740
sS'11527'
p741
(I318
I1430
tp742
sS'11520'
p743
(I367
I1565
tp744
sS'11521'
p745
(I38
I590
tp746
sS'11522'
p747
(I57
I676
tp748
sS'11488'
p749
(I282
I1317
tp750
sS'11487'
p751
(I475
I1840
tp752
sS'11486'
p753
(I368
I1567
tp754
sS'11485'
p755
(I392
I1639
tp756
sS'11484'
p757
(I246
I1221
tp758
sS'11483'
p759
(I338
I1499
tp760
sS'11529'
p761
(I202
I1084
tp762
sS'11481'
p763
(I426
I1717
tp764
sS'11480'
p765
(I137
I884
tp766
sS'11249'
p767
(I402
I1666
tp768
sS'11248'
p769
(I423
I1711
tp770
sS'11245'
p771
(I88
I763
tp772
sS'11244'
p773
(I187
I1040
tp774
sS'11247'
p775
(I359
I1558
tp776
sS'11246'
p777
(I552
I2027
tp778
sS'11241'
p779
(I313
I1415
tp780
sS'11240'
p781
(I176
I1016
tp782
sS'11243'
p783
(I184
I1031
tp784
sS'11242'
p785
(I335
I1496
tp786
sS'11872'
p787
(I711
I2545
tp788
sS'11873'
p789
(I197
I1059
tp790
sS'11870'
p791
(I584
I2106
tp792
sS'11871'
p793
(I657
I2359
tp794
sS'11876'
p795
(I726
I2591
tp796
sS'11877'
p797
(I595
I2143
tp798
sS'11874'
p799
(I620
I2224
tp800
sS'11875'
p801
(I743
I2629
tp802
sS'11878'
p803
(I749
I2647
tp804
sS'11879'
p805
(I179
I1018
tp806
sS'11962'
p807
(I784
I2784
tp808
sS'11963'
p809
(I72
I724
tp810
sS'11410'
p811
(I806
I2865
tp812
sS'11411'
p813
(I765
I2733
tp814
sS'11799'
p815
(I307
I1395
tp816
sS'11798'
p817
(I684
I2445
tp818
sS'11414'
p819
(I735
I2615
tp820
sS'11416'
p821
(I74
I728
tp822
sS'11417'
p823
(I199
I1071
tp824
sS'11418'
p825
(I36
I584
tp826
sS'11419'
p827
(I40
I600
tp828
sS'11791'
p829
(I291
I1351
tp830
sS'11790'
p831
(I316
I1429
tp832
sS'11797'
p833
(I397
I1648
tp834
sS'11796'
p835
(I579
I2097
tp836
sS'11795'
p837
(I542
I1998
tp838
sS'11794'
p839
(I249
I1223
tp840
sS'11499'
p841
(I510
I1940
tp842
sS'11991'
p843
(I662
I2377
tp844
sS'43143'
p845
(I385
I1622
tp846
sS'11050'
p847
(I449
I1767
tp848
sS'11230'
p849
(I676
I2414
tp850
sS'11052'
p851
(I350
I1524
tp852
sS'11053'
p853
(I294
I1366
tp854
sS'11054'
p855
(I233
I1174
tp856
sS'11056'
p857
(I389
I1632
tp858
sS'11231'
p859
(I24
I507
tp860
sS'11058'
p861
(I293
I1363
tp862
sS'11119'
p863
(I78
I734
tp864
sS'11666'
p865
(I44
I629
tp866
sS'43142'
p867
(I638
I2278
tp868
sS'11663'
p869
(I770
I2737
tp870
sS'11660'
p871
(I704
I2511
tp872
sS'11110'
p873
(I244
I1216
tp874
sS'11113'
p875
(I349
I1522
tp876
sS'11112'
p877
(I400
I1659
tp878
sS'11115'
p879
(I101
I791
tp880
sS'11114'
p881
(I210
I1109
tp882
sS'11117'
p883
(I8
I452
tp884
sS'11116'
p885
(I34
I567
tp886
sS'11464'
p887
(I237
I1193
tp888
sS'11467'
p889
(I287
I1343
tp890
sS'11461'
p891
(I178
I1017
tp892
sS'11709'
p893
(I71
I724
tp894
sS'11463'
p895
(I62
I696
tp896
sS'11705'
p897
(I170
I1002
tp898
sS'11707'
p899
(I28
I540
tp900
sS'11700'
p901
(I127
I871
tp902
sS'11468'
p903
(I230
I1165
tp904
sS'11702'
p905
(I607
I2191
tp906
sS'11703'
p907
(I623
I2231
tp908
sS'11025'
p909
(I193
I1055
tp910
sS'11024'
p911
(I67
I703
tp912
sS'11027'
p913
(I46
I639
tp914
sS'11026'
p915
(I263
I1266
tp916
sS'11023'
p917
(I152
I948
tp918
sS'11022'
p919
(I31
I548
tp920
sS'11029'
p921
(I25
I521
tp922
sS'11028'
p923
(I214
I1112
tp924
sS'11809'
p925
(I432
I1732
tp926
sS'11808'
p927
(I767
I2734
tp928
sS'11803'
p929
(I342
I1504
tp930
sS'11802'
p931
(I171
I1002
tp932
sS'11801'
p933
(I116
I851
tp934
sS'11800'
p935
(I84
I759
tp936
sS'11807'
p937
(I529
I1977
tp938
sS'11806'
p939
(I547
I2006
tp940
sS'11805'
p941
(I691
I2475
tp942
sS'11804'
p943
(I479
I1850
tp944
sS'11201'
p945
(I105
I810
tp946
sS'11569'
p947
(I48
I646
tp948
sS'11203'
p949
(I311
I1408
tp950
sS'11202'
p951
(I30
I544
tp952
sS'11205'
p953
(I175
I1012
tp954
sS'11204'
p955
(I182
I1026
tp956
sS'43217'
p957
(I308
I1396
tp958
sS'11206'
p959
(I86
I761
tp960
sS'11209'
p961
(I337
I1499
tp962
sS'11208'
p963
(I296
I1369
tp964
sS'11563'
p965
(I302
I1379
tp966
sS'11564'
p967
(I468
I1817
tp968
sS'11565'
p969
(I304
I1388
tp970
sS'11566'
p971
(I76
I732
tp972
sS'11567'
p973
(I271
I1291
tp974
sS'11368'
p975
(I447
I1766
tp976
sS'11369'
p977
(I588
I2121
tp978
sS'11366'
p979
(I433
I1740
tp980
sS'11367'
p981
(I488
I1869
tp982
sS'11364'
p983
(I672
I2408
tp984
sS'11365'
p985
(I471
I1826
tp986
sS'11362'
p987
(I328
I1479
tp988
sS'11363'
p989
(I553
I2028
tp990
sS'11360'
p991
(I794
I2813
tp992
sS'11361'
p993
(I820
I3243
tp994
sS'11939'
p995
(I155
I956
tp996
sS'11937'
p997
(I391
I1637
tp998
sS'11935'
p999
(I817
I3081
tp1000
sS'11934'
p1001
(I789
I2794
tp1002
sS'11933'
p1003
(I146
I906
tp1004
sS'11932'
p1005
(I292
I1355
tp1006
sS'11931'
p1007
(I779
I2771
tp1008
sS'11930'
p1009
(I753
I2678
tp1010
sS'11898'
p1011
(I401
I1662
tp1012
sS'11899'
p1013
(I390
I1632
tp1014
sS'11894'
p1015
(I601
I2160
tp1016
sS'11895'
p1017
(I281
I1314
tp1018
sS'11896'
p1019
(I295
I1368
tp1020
sS'11897'
p1021
(I687
I2458
tp1022
sS'11890'
p1023
(I336
I1498
tp1024
sS'11891'
p1025
(I198
I1061
tp1026
sS'11892'
p1027
(I258
I1255
tp1028
sS'11893'
p1029
(I261
I1262
tp1030
sS'11519'
p1031
(I649
I2317
tp1032
sS'11518'
p1033
(I567
I2056
tp1034
sS'11514'
p1035
(I688
I2461
tp1036
sS'11517'
p1037
(I660
I2366
tp1038
sS'11516'
p1039
(I431
I1730
tp1040
sS'11510'
p1041
(I653
I2338
tp1042
sS'11512'
p1043
(I678
I2422
tp1044
sS'11298'
p1045
(I690
I2470
tp1046
sS'11299'
p1047
(I682
I2442
tp1048
sS'11292'
p1049
(I489
I1878
tp1050
sS'11293'
p1051
(I312
I1412
tp1052
sS'11290'
p1053
(I369
I1572
tp1054
sS'11291'
p1055
(I285
I1329
tp1056
sS'11296'
p1057
(I799
I2837
tp1058
sS'11297'
p1059
(I275
I1300
tp1060
sS'11294'
p1061
(I507
I1931
tp1062
sS'11295'
p1063
(I781
I2775
tp1064
sS'11094'
p1065
(I139
I890
tp1066
sS'11095'
p1067
(I92
I772
tp1068
sS'11096'
p1069
(I2
I336
tp1070
sS'11097'
p1071
(I23
I499
tp1072
sS'11090'
p1073
(I215
I1112
tp1074
sS'11091'
p1075
(I260
I1260
tp1076
sS'11092'
p1077
(I96
I778
tp1078
sS'11093'
p1079
(I82
I742
tp1080
sS'11098'
p1081
(I354
I1535
tp1082
sS'11099'
p1083
(I341
I1503
tp1084
sS'11493'
p1085
(I418
I1695
tp1086
sS'11740'
p1087
(I63
I696
tp1088
sS'11741'
p1089
(I70
I717
tp1090
sS'11742'
p1091
(I384
I1610
tp1092
sS'11743'
p1093
(I247
I1222
tp1094
sS'11744'
p1095
(I245
I1218
tp1096
sS'11745'
p1097
(I482
I1853
tp1098
sS'11746'
p1099
(I500
I1908
tp1100
sS'11747'
p1101
(I760
I2703
tp1102
sS'11748'
p1103
(I124
I865
tp1104
sS'11749'
p1105
(I130
I874
tp1106
sS'11429'
p1107
(I196
I1058
tp1108
sS'11587'
p1109
(I4
I393
tp1110
sS'11584'
p1111
(I465
I1813
tp1112
sS'11585'
p1113
(I310
I1407
tp1114
sS'11583'
p1115
(I398
I1651
tp1116
sS'11581'
p1117
(I478
I1850
tp1118
sS'11423'
p1119
(I226
I1149
tp1120
sS'11422'
p1121
(I297
I1369
tp1122
sS'11424'
p1123
(I513
I1951
tp1124
sS'11427'
p1125
(I85
I760
tp1126
sS'11426'
p1127
(I696
I2497
tp1128
sS'31029'
p1129
(I824
I3363
tp1130
sS'31028'
p1131
(I685
I2449
tp1132
sS'31023'
p1133
(I826
I3421
tp1134
sS'31022'
p1135
(I805
I2863
tp1136
sS'31021'
p1137
(I606
I2182
tp1138
sS'31020'
p1139
(I372
I1578
tp1140
sS'31027'
p1141
(I823
I3336
tp1142
sS'31026'
p1143
(I818
I3167
tp1144
sS'31025'
p1145
(I827
I3457
tp1146
sS'31024'
p1147
(I828
I3479
tp1148
sS'11147'
p1149
(I118
I855
tp1150
sS'11144'
p1151
(I284
I1329
tp1152
sS'11145'
p1153
(I49
I647
tp1154
sS'11142'
p1155
(I232
I1171
tp1156
sS'11143'
p1157
(I162
I976
tp1158
sS'11141'
p1159
(I557
I2041
tp1160
sS'11061'
p1161
(I223
I1140
tp1162
sS'11060'
p1163
(I330
I1480
tp1164
sS'11063'
p1165
(I409
I1683
tp1166
sS'11062'
p1167
(I361
I1559
tp1168
sS'11148'
p1169
(I111
I819
tp1170
sS'11149'
p1171
(I181
I1026
tp1172
sS'11735'
p1173
(I470
I1825
tp1174
sS'43144'
p1175
(I480
I1850
tp1176
sS'11737'
p1177
(I407
I1677
tp1178
sS'11736'
p1179
(I286
I1338
tp1180
sS'11731'
p1181
(I355
I1535
tp1182
sS'11730'
p1183
(I217
I1118
tp1184
sS'11733'
p1185
(I363
I1560
tp1186
sS'11732'
p1187
(I238
I1193
tp1188
sS'11634'
p1189
(I777
I2767
tp1190
sS'11637'
p1191
(I55
I671
tp1192
sS'11739'
p1193
(I56
I672
tp1194
sS'11738'
p1195
(I496
I1891
tp1196
sS'11632'
p1197
(I602
I2172
tp1198
sS'43311'
p1199
(I485
I1861
tp1200
sS'43312'
p1201
(I403
I1666
tp1202
sS'11523'
p1203
(I64
I699
tp1204
sS'11322'
p1205
(I358
I1554
tp1206
sS'11323'
p1207
(I544
I2000
tp1208
sS'11326'
p1209
(I356
I1538
tp1210
sS'11327'
p1211
(I441
I1759
tp1212
sS'11324'
p1213
(I483
I1855
tp1214
sS'11329'
p1215
(I568
I2060
tp1216
sS'11482'
p1217
(I288
I1343
tp1218
sS'11658'
p1219
(I724
I2586
tp1220
sS'11615'
p1221
(I701
I2505
tp1222
sS'11659'
p1223
(I814
I3051
tp1224
sS'11551'
p1225
(I661
I2373
tp1226
sS'11998'
p1227
(I173
I1007
tp1228
sS'11553'
p1229
(I506
I1927
tp1230
sS'43365'
p1231
(I352
I1526
tp1232
sS'11557'
p1233
(I756
I2688
tp1234
sS'11559'
p1235
(I224
I1142
tp1236
sS'11491'
p1237
(I383
I1610
tp1238
sS'11993'
p1239
(I241
I1200
tp1240
sS'11992'
p1241
(I106
I813
tp1242
sS'11995'
p1243
(I108
I814
tp1244
sS'11495'
p1245
(I525
I1966
tp1246
sS'11496'
p1247
(I578
I2094
tp1248
sS'11996'
p1249
(I141
I890
tp1250
sS'11397'
p1251
(I723
I2579
tp1252
sS'11396'
p1253
(I446
I1763
tp1254
sS'11395'
p1255
(I790
I2800
tp1256
sS'11394'
p1257
(I791
I2807
tp1258
sS'11393'
p1259
(I804
I2857
tp1260
sS'11392'
p1261
(I773
I2749
tp1262
sS'11258'
p1263
(I422
I1708
tp1264
sS'11259'
p1265
(I477
I1850
tp1266
sS'11257'
p1267
(I18
I475
tp1268
sS'11254'
p1269
(I413
I1687
tp1270
sS'11255'
p1271
(I472
I1830
tp1272
sS'11252'
p1273
(I128
I872
tp1274
sS'11253'
p1275
(I13
I467
tp1276
sS'11250'
p1277
(I19
I480
tp1278
sS'11251'
p1279
(I37
I587
tp1280
sS'11964'
p1281
(I75
I730
tp1282
sS'11965'
p1283
(I255
I1250
tp1284
sS'11967'
p1285
(I98
I787
tp1286
sS'11960'
p1287
(I515
I1955
tp1288
sS'11961'
p1289
(I399
I1651
tp1290
sS'11849'
p1291
(I169
I996
tp1292
sS'11848'
p1293
(I195
I1056
tp1294
sS'11847'
p1295
(I324
I1463
tp1296
sS'11846'
p1297
(I652
I2321
tp1298
sS'11845'
p1299
(I333
I1487
tp1300
sS'11844'
p1301
(I670
I2403
tp1302
sS'11968'
p1303
(I250
I1227
tp1304
sS'11969'
p1305
(I160
I965
tp1306
sS'11841'
p1307
(I801
I2845
tp1308
sS'11840'
p1309
(I778
I2767
tp1310
sS'11191'
p1311
(I609
I2195
tp1312
sS'11190'
p1313
(I11
I455
tp1314
sS'11192'
p1315
(I630
I2257
tp1316
sS'11195'
p1317
(I604
I2179
tp1318
sS'11579'
p1319
(I345
I1511
tp1320
sS'11197'
p1321
(I534
I1991
tp1322
sS'11196'
p1323
(I699
I2503
tp1324
sS'11199'
p1325
(I290
I1344
tp1326
sS'11198'
p1327
(I252
I1234
tp1328
sS'11273'
p1329
(I5
I429
tp1330
sS'11784'
p1331
(I150
I939
tp1332
sS'11785'
p1333
(I764
I2725
tp1334
sS'11786'
p1335
(I416
I1690
tp1336
sS'11787'
p1337
(I424
I1712
tp1338
sS'11780'
p1339
(I107
I814
tp1340
sS'11781'
p1341
(I334
I1491
tp1342
sS'11782'
p1343
(I451
I1770
tp1344
sS'11783'
p1345
(I636
I2270
tp1346
sS'43146'
p1347
(I812
I3030
tp1348
sS'11788'
p1349
(I481
I1851
tp1350
sS'11789'
p1351
(I278
I1307
tp1352
sS'11649'
p1353
(I453
I1775
tp1354
sS'43406'
p1355
(I768
I2735
tp1356
sS'11843'
p1357
(I712
I2546
tp1358
sS'11672'
p1359
(I792
I2808
tp1360
sS'11842'
p1361
(I782
I2776
tp1362
sS'11670'
p1363
(I429
I1727
tp1364
sS'11671'
p1365
(I659
I2361
tp1366
sS'11108'
p1367
(I81
I741
tp1368
sS'11109'
p1369
(I322
I1457
tp1370
sS'11674'
p1371
(I538
I1993
tp1372
sS'11675'
p1373
(I452
I1773
tp1374
sS'11676'
p1375
(I227
I1154
tp1376
sS'11677'
p1377
(I611
I2199
tp1378
sS'11100'
p1379
(I216
I1117
tp1380
sS'11101'
p1381
(I357
I1549
tp1382
sS'11106'
p1383
(I73
I726
tp1384
sS'11107'
p1385
(I68
I710
tp1386
sS'11104'
p1387
(I610
I2199
tp1388
sS'11105'
p1389
(I658
I2360
tp1390
sS'11476'
p1391
(I125
I868
tp1392
sS'11477'
p1393
(I185
I1036
tp1394
sS'11474'
p1395
(I279
I1310
tp1396
sS'11475'
p1397
(I190
I1043
tp1398
sS'11473'
p1399
(I138
I889
tp1400
sS'11471'
p1401
(I97
I779
tp1402
sS'11771'
p1403
(I613
I2203
tp1404
sS'11770'
p1405
(I759
I2702
tp1406
sS'43350'
p1407
(I421
I1704
tp1408
sS'11772'
p1409
(I626
I2246
tp1410
sS'11775'
p1411
(I730
I2601
tp1412
sS'11774'
p1413
(I694
I2481
tp1414
sS'11478'
p1415
(I114
I837
tp1416
sS'11479'
p1417
(I136
I883
tp1418
sS'11779'
p1419
(I415
I1689
tp1420
sS'11032'
p1421
(I559
I2048
tp1422
sS'11033'
p1423
(I466
I1815
tp1424
sS'11030'
p1425
(I51
I661
tp1426
sS'11031'
p1427
(I598
I2154
tp1428
sS'11038'
p1429
(I546
I2004
tp1430
sS'11039'
p1431
(I577
I2093
tp1432
sS'11605'
p1433
(I587
I2115
tp1434
sS'11604'
p1435
(I272
I1294
tp1436
sS'11601'
p1437
(I591
I2131
tp1438
sS'11603'
p1439
(I394
I1645
tp1440
sS'11602'
p1441
(I592
I2135
tp1442
sS'11609'
p1443
(I802
I2848
tp1444
sS'11959'
p1445
(I213
I1109
tp1446
sS'11958'
p1447
(I813
I3044
tp1448
sS'11955'
p1449
(I783
I2782
tp1450
sS'11954'
p1451
(I536
I1992
tp1452
sS'11957'
p1453
(I543
I1999
tp1454
sS'11956'
p1455
(I741
I2628
tp1456
sS'11951'
p1457
(I174
I1009
tp1458
sS'11950'
p1459
(I115
I841
tp1460
sS'11953'
p1461
(I10
I453
tp1462
sS'11952'
p1463
(I147
I926
tp1464
sS'11212'
p1465
(I612
I2202
tp1466
sS'11213'
p1467
(I17
I472
tp1468
sS'11210'
p1469
(I531
I1978
tp1470
sS'11211'
p1471
(I417
I1692
tp1472
sS'11216'
p1473
(I680
I2437
tp1474
sS'11215'
p1475
(I617
I2216
tp1476
sS'11218'
p1477
(I80
I740
tp1478
sS'11219'
p1479
(I91
I766
tp1480
sS'11773'
p1481
(I627
I2248
tp1482
sS'11359'
p1483
(I788
I2794
tp1484
sS'11358'
p1485
(I524
I1966
tp1486
sS'11353'
p1487
(I467
I1817
tp1488
sS'11352'
p1489
(I461
I1801
tp1490
sS'11351'
p1491
(I123
I863
tp1492
sS'11350'
p1493
(I52
I663
tp1494
sS'11357'
p1495
(I572
I2082
tp1496
sS'11356'
p1497
(I535
I1991
tp1498
sS'11355'
p1499
(I487
I1868
tp1500
sS'11354'
p1501
(I486
I1868
tp1502
sS'11928'
p1503
(I469
I1823
tp1504
sS'11929'
p1505
(I725
I2588
tp1506
sS'11777'
p1507
(I703
I2506
tp1508
sS'11489'
p1509
(I518
I1957
tp1510
sS'11921'
p1511
(I686
I2454
tp1512
sS'11922'
p1513
(I254
I1248
tp1514
sS'11923'
p1515
(I499
I1906
tp1516
sS'11924'
p1517
(I484
I1860
tp1518
sS'11925'
p1519
(I99
I789
tp1520
sS'11926'
p1521
(I558
I2041
tp1522
sS'11927'
p1523
(I608
I2194
tp1524
sS'11508'
p1525
(I654
I2339
tp1526
sS'11428'
p1527
(I53
I666
tp1528
sS'11506'
p1529
(I476
I1849
tp1530
sS'11507'
p1531
(I663
I2380
tp1532
sS'11504'
p1533
(I89
I763
tp1534
sS'11505'
p1535
(I300
I1374
tp1536
sS'11502'
p1537
(I647
I2315
tp1538
sS'11503'
p1539
(I15
I469
tp1540
sS'11501'
p1541
(I570
I2069
tp1542
sS'11814'
p1543
(I656
I2345
tp1544
sS'11815'
p1545
(I539
I1995
tp1546
sS'11816'
p1547
(I366
I1563
tp1548
sS'11817'
p1549
(I643
I2300
tp1550
sS'11810'
p1551
(I574
I2085
tp1552
sS'11811'
p1553
(I632
I2260
tp1554
sS'11812'
p1555
(I414
I1687
tp1556
sS'11813'
p1557
(I498
I1897
tp1558
sS'11818'
p1559
(I590
I2129
tp1560
sS'11819'
p1561
(I456
I1781
tp1562
sS'11412'
p1563
(I811
I2978
tp1564
sS'11413'
p1565
(I733
I2612
tp1566
sS'11793'
p1567
(I526
I1966
tp1568
sS'11438'
p1569
(I634
I2264
tp1570
sS'11439'
p1571
(I497
I1892
tp1572
sS'43387'
p1573
(I47
I642
tp1574
sS'11588'
p1575
(I732
I2611
tp1576
sS'11792'
p1577
(I280
I1314
tp1578
sS'11432'
p1579
(I776
I2765
tp1580
sS'11430'
p1581
(I256
I1253
tp1582
sS'11431'
p1583
(I228
I1155
tp1584
sS'11436'
p1585
(I460
I1800
tp1586
sS'11437'
p1587
(I501
I1910
tp1588
sS'11435'
p1589
(I551
I2021
tp1590
sS'11172'
p1591
(I708
I2529
tp1592
sS'11170'
p1593
(I674
I2411
tp1594
sS'11177'
p1595
(I639
I2282
tp1596
sS'11176'
p1597
(I719
I2568
tp1598
sS'11174'
p1599
(I722
I2578
tp1600
sS'11179'
p1601
(I628
I2255
tp1602
sS'11178'
p1603
(I650
I2319
tp1604
sS'11726'
p1605
(I79
I739
tp1606
sS'11727'
p1607
(I207
I1100
tp1608
sS'11724'
p1609
(I299
I1370
tp1610
sS'11725'
p1611
(I459
I1795
tp1612
sS'11722'
p1613
(I158
I963
tp1614
sS'11723'
p1615
(I462
I1801
tp1616
sS'11720'
p1617
(I771
I2737
tp1618
sS'11721'
p1619
(I205
I1088
tp1620
sS'11641'
p1621
(I126
I868
tp1622
sS'11640'
p1623
(I746
I2646
tp1624
sS'11643'
p1625
(I340
I1500
tp1626
sS'11642'
p1627
(I273
I1298
tp1628
sS'11645'
p1629
(I737
I2619
tp1630
sS'11644'
p1631
(I494
I1887
tp1632
sS'11728'
p1633
(I83
I749
tp1634
sS'11729'
p1635
(I203
I1086
tp1636
sS'11037'
p1637
(I555
I2031
tp1638
sS'11318'
p1639
(I405
I1673
tp1640
sS'11317'
p1641
(I386
I1625
tp1642
sS'11316'
p1643
(I575
I2089
tp1644
sS'11313'
p1645
(I573
I2085
tp1646
sS'11312'
p1647
(I616
I2212
tp1648
sS'11311'
p1649
(I566
I2055
tp1650
sS'11310'
p1651
(I404
I1673
tp1652
sS'31030'
p1653
(I815
I3055
tp1654
sS'11761'
p1655
(I339
I1499
tp1656
s.