(dp0
S'12078'
p1
(I95
I437
tp2
sS'12077'
p3
(I86
I400
tp4
sS'12071'
p5
(I69
I335
tp6
sS'12529'
p7
(I87
I402
tp8
sS'12176'
p9
(I31
I199
tp10
sS'12177'
p11
(I128
I599
tp12
sS'12174'
p13
(I55
I276
tp14
sS'12175'
p15
(I33
I206
tp16
sS'12170'
p17
(I38
I219
tp18
sS'12171'
p19
(I57
I282
tp20
sS'12179'
p21
(I133
I639
tp22
sS'12060'
p23
(I54
I272
tp24
sS'12061'
p25
(I53
I268
tp26
sS'12062'
p27
(I74
I346
tp28
sS'12063'
p29
(I66
I323
tp30
sS'12065'
p31
(I60
I299
tp32
sS'12536'
p33
(I61
I302
tp34
sS'12537'
p35
(I89
I411
tp36
sS'12665'
p37
(I91
I416
tp38
sS'12663'
p39
(I80
I372
tp40
sS'12538'
p41
(I110
I494
tp42
sS'12151'
p43
(I71
I339
tp44
sS'12143'
p45
(I90
I416
tp46
sS'12142'
p47
(I92
I420
tp48
sS'12140'
p49
(I122
I557
tp50
sS'12147'
p51
(I84
I396
tp52
sS'12145'
p53
(I103
I463
tp54
sS'12144'
p55
(I100
I449
tp56
sS'12149'
p57
(I108
I488
tp58
sS'12588'
p59
(I129
I619
tp60
sS'12539'
p61
(I99
I447
tp62
sS'12586'
p63
(I124
I567
tp64
sS'12585'
p65
(I125
I568
tp66
sS'12014'
p67
(I45
I236
tp68
sS'12016'
p69
(I52
I263
tp70
sS'12011'
p71
(I11
I140
tp72
sS'12013'
p73
(I24
I166
tp74
sS'12095'
p75
(I7
I131
tp76
sS'12094'
p77
(I27
I185
tp78
sS'12097'
p79
(I23
I165
tp80
sS'12096'
p81
(I20
I151
tp82
sS'12158'
p83
(I26
I173
tp84
sS'12093'
p85
(I15
I147
tp86
sS'12154'
p87
(I28
I187
tp88
sS'12155'
p89
(I75
I350
tp90
sS'12156'
p91
(I115
I532
tp92
sS'12099'
p93
(I50
I256
tp94
sS'12098'
p95
(I16
I147
tp96
sS'12152'
p97
(I77
I360
tp98
sS'12644'
p99
(I126
I569
tp100
sS'12127'
p101
(I13
I143
tp102
sS'12643'
p103
(I121
I551
tp104
sS'12008'
p105
(I2
I100
tp106
sS'12006'
p107
(I41
I224
tp108
sS'12007'
p109
(I12
I142
tp110
sS'12004'
p111
(I21
I158
tp112
sS'12005'
p113
(I42
I226
tp114
sS'12003'
p115
(I19
I150
tp116
sS'12001'
p117
(I17
I149
tp118
sS'12129'
p119
(I18
I149
tp120
sS'12128'
p121
(I30
I192
tp122
sS'12084'
p123
(I22
I163
tp124
sS'12085'
p125
(I102
I463
tp126
sS'12121'
p127
(I76
I358
tp128
sS'12120'
p129
(I68
I332
tp130
sS'12122'
p131
(I94
I424
tp132
sS'12088'
p133
(I81
I380
tp134
sS'12565'
p135
(I98
I444
tp136
sS'12738'
p137
(I111
I501
tp138
sS'12632'
p139
(I131
I632
tp140
sS'12635'
p141
(I112
I504
tp142
sS'12637'
p143
(I118
I543
tp144
sS'12638'
p145
(I116
I532
tp146
sS'12737'
p147
(I114
I528
tp148
sS'12039'
p149
(I59
I284
tp150
sS'12038'
p151
(I73
I344
tp152
sS'12033'
p153
(I3
I114
tp154
sS'12032'
p155
(I25
I166
tp156
sS'12563'
p157
(I105
I468
tp158
sS'12037'
p159
(I47
I241
tp160
sS'12036'
p161
(I34
I207
tp162
sS'12567'
p163
(I104
I465
tp164
sS'12034'
p165
(I63
I308
tp166
sS'12138'
p167
(I88
I407
tp168
sS'12132'
p169
(I119
I549
tp170
sS'12130'
p171
(I78
I365
tp172
sS'12131'
p173
(I123
I562
tp174
sS'12137'
p175
(I101
I453
tp176
sS'12135'
p177
(I72
I340
tp178
sS'12024'
p179
(I48
I245
tp180
sS'12021'
p181
(I32
I203
tp182
sS'12022'
p183
(I5
I120
tp184
sS'12023'
p185
(I46
I241
tp186
sS'12029'
p187
(I62
I307
tp188
sS'12104'
p189
(I65
I321
tp190
sS'12101'
p191
(I10
I136
tp192
sS'12100'
p193
(I51
I258
tp194
sS'12109'
p195
(I130
I625
tp196
sS'12108'
p197
(I132
I639
tp198
sS'12220'
p199
(I36
I214
tp200
sS'12516'
p201
(I70
I338
tp202
sS'12198'
p203
(I67
I330
tp204
sS'12540'
p205
(I117
I543
tp206
sS'12059'
p207
(I56
I280
tp208
sS'12058'
p209
(I37
I216
tp210
sS'12193'
p211
(I43
I230
tp212
sS'12195'
p213
(I64
I317
tp214
sS'12110'
p215
(I93
I424
tp216
sS'12086'
p217
(I106
I480
tp218
sS'12695'
p219
(I109
I492
tp220
sS'12114'
p221
(I127
I572
tp222
sS'12115'
p223
(I35
I207
tp224
sS'12116'
p225
(I120
I551
tp226
sS'12117'
p227
(I39
I220
tp228
sS'12118'
p229
(I29
I188
tp230
sS'12119'
p231
(I9
I134
tp232
sS'12698'
p233
(I82
I388
tp234
sS'12087'
p235
(I97
I441
tp236
sS'12040'
p237
(I96
I438
tp238
sS'12041'
p239
(I1
I61
tp240
sS'12200'
p241
(I113
I516
tp242
sS'12167'
p243
(I44
I234
tp244
sS'12166'
p245
(I85
I398
tp246
sS'12160'
p247
(I40
I220
tp248
sS'12163'
p249
(I49
I253
tp250
sS'12652'
p251
(I107
I484
tp252
sS'12204'
p253
(I14
I143
tp254
sS'12205'
p255
(I4
I118
tp256
sS'12206'
p257
(I83
I389
tp258
sS'12169'
p259
(I58
I283
tp260
sS'12201'
p261
(I79
I371
tp262
sS'12202'
p263
(I8
I132
tp264
sS'12203'
p265
(I6
I123
tp266
s.