(dp0
S'23181'
p1
(I918
I4134
tp2
sS'23363'
p3
(I22
I773
tp4
sS'23362'
p5
(I10
I631
tp6
sS'23361'
p7
(I46
I857
tp8
sS'23360'
p9
(I23
I774
tp10
sS'23367'
p11
(I335
I1795
tp12
sS'23366'
p13
(I271
I1585
tp14
sS'23365'
p15
(I11
I632
tp16
sS'23364'
p17
(I47
I858
tp18
sS'23442'
p19
(I886
I3911
tp20
sS'23443'
p21
(I914
I4070
tp22
sS'23369'
p23
(I304
I1701
tp24
sS'23368'
p25
(I176
I1251
tp26
sS'23446'
p27
(I526
I2436
tp28
sS'23447'
p29
(I480
I2268
tp30
sS'23444'
p31
(I71
I945
tp32
sS'23445'
p33
(I113
I1022
tp34
sS'23180'
p35
(I616
I2793
tp36
sS'23170'
p37
(I797
I3560
tp38
sS'13805'
p39
(I746
I3386
tp40
sS'23171'
p41
(I829
I3695
tp42
sS'23511'
p43
(I366
I1877
tp44
sS'13166'
p45
(I695
I3137
tp46
sS'13165'
p47
(I315
I1737
tp48
sS'23222'
p49
(I819
I3639
tp50
sS'23045'
p51
(I374
I1900
tp52
sS'23042'
p53
(I718
I3242
tp54
sS'23125'
p55
(I849
I3747
tp56
sS'23043'
p57
(I564
I2596
tp58
sS'23040'
p59
(I294
I1669
tp60
sS'23041'
p61
(I659
I2989
tp62
sS'23223'
p63
(I789
I3513
tp64
sS'13368'
p65
(I387
I1927
tp66
sS'13499'
p67
(I605
I2751
tp68
sS'13883'
p69
(I562
I2587
tp70
sS'23186'
p71
(I889
I3924
tp72
sS'13807'
p73
(I760
I3417
tp74
sS'23448'
p75
(I924
I4262
tp76
sS'23449'
p77
(I932
I4351
tp78
sS'13019'
p79
(I907
I4030
tp80
sS'23127'
p81
(I850
I3753
tp82
sS'23200'
p83
(I842
I3730
tp84
sS'13428'
p85
(I120
I1031
tp86
sS'13426'
p87
(I28
I818
tp88
sS'13425'
p89
(I170
I1234
tp90
sS'13424'
p91
(I155
I1168
tp92
sS'13423'
p93
(I263
I1568
tp94
sS'13422'
p95
(I329
I1781
tp96
sS'13421'
p97
(I309
I1709
tp98
sS'13420'
p99
(I3
I552
tp100
sS'23441'
p101
(I279
I1621
tp102
sS'23126'
p103
(I867
I3827
tp104
sS'23299'
p105
(I944
I4443
tp106
sS'23201'
p107
(I901
I4009
tp108
sS'23226'
p109
(I866
I3826
tp110
sS'23455'
p111
(I890
I3924
tp112
sS'13926'
p113
(I745
I3385
tp114
sS'23007'
p115
(I845
I3734
tp116
sS'13904'
p117
(I591
I2724
tp118
sS'13905'
p119
(I852
I3760
tp120
sS'23660'
p121
(I625
I2842
tp122
sS'13907'
p123
(I872
I3845
tp124
sS'13900'
p125
(I225
I1452
tp126
sS'13901'
p127
(I393
I1961
tp128
sS'13902'
p129
(I341
I1802
tp130
sS'13903'
p131
(I404
I1993
tp132
sS'13867'
p133
(I445
I2133
tp134
sS'13866'
p135
(I531
I2443
tp136
sS'13865'
p137
(I487
I2284
tp138
sS'13864'
p139
(I549
I2536
tp140
sS'13863'
p141
(I476
I2264
tp142
sS'13862'
p143
(I513
I2401
tp144
sS'13861'
p145
(I824
I3654
tp146
sS'13860'
p147
(I749
I3392
tp148
sS'23099'
p149
(I834
I3703
tp150
sS'23098'
p151
(I527
I2437
tp152
sS'23549'
p153
(I437
I2114
tp154
sS'23091'
p155
(I275
I1601
tp156
sS'23090'
p157
(I351
I1829
tp158
sS'23093'
p159
(I244
I1523
tp160
sS'23092'
p161
(I380
I1913
tp162
sS'23547'
p163
(I101
I1003
tp164
sS'23094'
p165
(I218
I1398
tp166
sS'23545'
p167
(I467
I2218
tp168
sS'23096'
p169
(I548
I2523
tp170
sS'13339'
p171
(I708
I3204
tp172
sS'13338'
p173
(I809
I3594
tp174
sS'23120'
p175
(I546
I2518
tp176
sS'13333'
p177
(I81
I975
tp178
sS'13332'
p179
(I567
I2598
tp180
sS'13331'
p181
(I681
I3087
tp182
sS'13330'
p183
(I828
I3694
tp184
sS'13337'
p185
(I748
I3392
tp186
sS'23251'
p187
(I542
I2497
tp188
sS'13335'
p189
(I900
I4005
tp190
sS'13334'
p191
(I94
I994
tp192
sS'23064'
p193
(I280
I1622
tp194
sS'23065'
p195
(I198
I1317
tp196
sS'23066'
p197
(I697
I3145
tp198
sS'23067'
p199
(I692
I3128
tp200
sS'23060'
p201
(I679
I3086
tp202
sS'23061'
p203
(I314
I1729
tp204
sS'23062'
p205
(I298
I1679
tp206
sS'23063'
p207
(I224
I1449
tp208
sS'23147'
p209
(I621
I2817
tp210
sS'23146'
p211
(I673
I3059
tp212
sS'23144'
p213
(I891
I3930
tp214
sS'23068'
p215
(I696
I3140
tp216
sS'23069'
p217
(I661
I2996
tp218
sS'23141'
p219
(I855
I3777
tp220
sS'23140'
p221
(I847
I3735
tp222
sS'23327'
p223
(I102
I1004
tp224
sS'23326'
p225
(I42
I851
tp226
sS'23325'
p227
(I118
I1029
tp228
sS'23324'
p229
(I70
I942
tp230
sS'23323'
p231
(I892
I3948
tp232
sS'23322'
p233
(I933
I4357
tp234
sS'23321'
p235
(I925
I4272
tp236
sS'23320'
p237
(I929
I4330
tp238
sS'23329'
p239
(I54
I886
tp240
sS'23481'
p241
(I208
I1359
tp242
sS'23312'
p243
(I930
I4332
tp244
sS'23248'
p245
(I465
I2214
tp246
sS'23249'
p247
(I289
I1657
tp248
sS'23244'
p249
(I270
I1585
tp250
sS'23245'
p251
(I332
I1787
tp252
sS'23246'
p253
(I180
I1256
tp254
sS'23247'
p255
(I412
I2019
tp256
sS'23240'
p257
(I151
I1152
tp258
sS'23241'
p259
(I382
I1916
tp260
sS'23242'
p261
(I451
I2161
tp262
sS'23243'
p263
(I229
I1471
tp264
sS'23122'
p265
(I238
I1508
tp266
sS'23311'
p267
(I851
I3759
tp268
sS'13825'
p269
(I765
I3437
tp270
sS'23392'
p271
(I558
I2567
tp272
sS'23393'
p273
(I337
I1798
tp274
sS'23390'
p275
(I771
I3453
tp276
sS'23391'
p277
(I808
I3592
tp278
sS'23397'
p279
(I143
I1116
tp280
sS'23394'
p281
(I458
I2187
tp282
sS'23395'
p283
(I795
I3555
tp284
sS'23398'
p285
(I114
I1024
tp286
sS'23399'
p287
(I654
I2939
tp288
sS'23298'
p289
(I939
I4427
tp290
sS'13647'
p291
(I188
I1279
tp292
sS'23432'
p293
(I297
I1677
tp294
sS'23431'
p295
(I316
I1739
tp296
sS'23430'
p297
(I502
I2355
tp298
sS'23437'
p299
(I927
I4291
tp300
sS'23436'
p301
(I936
I4377
tp302
sS'23435'
p303
(I935
I4376
tp304
sS'23434'
p305
(I364
I1873
tp306
sS'23439'
p307
(I461
I2195
tp308
sS'23438'
p309
(I923
I4258
tp310
sS'13649'
p311
(I167
I1226
tp312
sS'13648'
p313
(I182
I1265
tp314
sS'13885'
p315
(I589
I2696
tp316
sS'13884'
p317
(I447
I2135
tp318
sS'13887'
p319
(I530
I2441
tp320
sS'13886'
p321
(I474
I2254
tp322
sS'13881'
p323
(I352
I1836
tp324
sS'13880'
p325
(I389
I1936
tp326
sS'13935'
p327
(I479
I2268
tp328
sS'13882'
p329
(I349
I1828
tp330
sS'13889'
p331
(I500
I2353
tp332
sS'13888'
p333
(I416
I2025
tp334
sS'23229'
p335
(I538
I2477
tp336
sS'23189'
p337
(I879
I3870
tp338
sS'13055'
p339
(I569
I2606
tp340
sS'13841'
p341
(I853
I3762
tp342
sS'13934'
p343
(I522
I2430
tp344
sS'23185'
p345
(I820
I3640
tp346
sS'13840'
p347
(I764
I3435
tp348
sS'13819'
p349
(I677
I3080
tp350
sS'13843'
p351
(I805
I3578
tp352
sS'23267'
p353
(I798
I3561
tp354
sS'13816'
p355
(I705
I3194
tp356
sS'13842'
p357
(I826
I3668
tp358
sS'13817'
p359
(I759
I3411
tp360
sS'13500'
p361
(I471
I2247
tp362
sS'13501'
p363
(I498
I2326
tp364
sS'13502'
p365
(I459
I2190
tp366
sS'23220'
p367
(I541
I2486
tp368
sS'13844'
p369
(I813
I3620
tp370
sS'13815'
p371
(I729
I3316
tp372
sS'13847'
p373
(I873
I3847
tp374
sS'13812'
p375
(I615
I2792
tp376
sS'13846'
p377
(I744
I3383
tp378
sS'23227'
p379
(I632
I2872
tp380
sS'13810'
p381
(I600
I2735
tp382
sS'13920'
p383
(I657
I2976
tp384
sS'13811'
p385
(I702
I3157
tp386
sS'13824'
p387
(I815
I3634
tp388
sS'13948'
p389
(I300
I1692
tp390
sS'13949'
p391
(I243
I1516
tp392
sS'23059'
p393
(I631
I2867
tp394
sS'23058'
p395
(I390
I1938
tp396
sS'23509'
p397
(I85
I982
tp398
sS'23508'
p399
(I685
I3098
tp400
sS'23055'
p401
(I147
I1122
tp402
sS'23054'
p403
(I385
I1920
tp404
sS'23057'
p405
(I278
I1610
tp406
sS'13943'
p407
(I293
I1668
tp408
sS'23051'
p409
(I93
I993
tp410
sS'23050'
p411
(I379
I1913
tp412
sS'13946'
p413
(I241
I1511
tp414
sS'23052'
p415
(I72
I956
tp416
sS'13474'
p417
(I581
I2651
tp418
sS'23389'
p419
(I831
I3699
tp420
sS'13477'
p421
(I529
I2440
tp422
sS'13470'
p423
(I339
I1800
tp424
sS'13378'
p425
(I82
I976
tp426
sS'13377'
p427
(I220
I1399
tp428
sS'13375'
p429
(I570
I2607
tp430
sS'13478'
p431
(I363
I1870
tp432
sS'13372'
p433
(I512
I2397
tp434
sS'13931'
p435
(I596
I2727
tp436
sS'13370'
p437
(I179
I1256
tp438
sS'13834'
p439
(I816
I3634
tp440
sS'13878'
p441
(I358
I1862
tp442
sS'23202'
p443
(I913
I4064
tp444
sS'13830'
p445
(I796
I3559
tp446
sS'13831'
p447
(I735
I3338
tp448
sS'13832'
p449
(I738
I3360
tp450
sS'13879'
p451
(I406
I1998
tp452
sS'23188'
p453
(I883
I3900
tp454
sS'13838'
p455
(I835
I3704
tp456
sS'13839'
p457
(I787
I3509
tp458
sS'23590'
p459
(I30
I822
tp460
sS'23591'
p461
(I12
I654
tp462
sS'23592'
p463
(I14
I676
tp464
sS'23593'
p465
(I96
I999
tp466
sS'23594'
p467
(I78
I967
tp468
sS'23595'
p469
(I123
I1035
tp470
sS'23596'
p471
(I99
I1001
tp472
sS'23597'
p473
(I36
I836
tp474
sS'23598'
p475
(I20
I761
tp476
sS'23612'
p477
(I166
I1213
tp478
sS'23611'
p479
(I87
I986
tp480
sS'23610'
p481
(I121
I1033
tp482
sS'23617'
p483
(I122
I1034
tp484
sS'23616'
p485
(I35
I835
tp486
sS'23615'
p487
(I165
I1208
tp488
sS'23614'
p489
(I246
I1524
tp490
sS'13925'
p491
(I715
I3232
tp492
sS'23552'
p493
(I433
I2101
tp494
sS'13922'
p495
(I719
I3248
tp496
sS'13923'
p497
(I676
I3078
tp498
sS'23114'
p499
(I806
I3579
tp500
sS'13488'
p501
(I242
I1513
tp502
sS'23116'
p503
(I801
I3566
tp504
sS'23117'
p505
(I814
I3626
tp506
sS'23110'
p507
(I704
I3190
tp508
sS'23111'
p509
(I288
I1657
tp510
sS'23112'
p511
(I222
I1435
tp512
sS'23656'
p513
(I193
I1292
tp514
sS'13481'
p515
(I388
I1933
tp516
sS'23296'
p517
(I942
I4437
tp518
sS'13483'
p519
(I533
I2460
tp520
sS'13482'
p521
(I254
I1546
tp522
sS'13485'
p523
(I109
I1015
tp524
sS'13484'
p525
(I264
I1568
tp526
sS'13487'
p527
(I378
I1913
tp528
sS'13486'
p529
(I313
I1727
tp530
sS'23477'
p531
(I80
I971
tp532
sS'23476'
p533
(I491
I2293
tp534
sS'23345'
p535
(I454
I2175
tp536
sS'13873'
p537
(I482
I2274
tp538
sS'23473'
p539
(I510
I2389
tp540
sS'23472'
p541
(I509
I2389
tp542
sS'23471'
p543
(I386
I1926
tp544
sS'23470'
p545
(I481
I2273
tp546
sS'23558'
p547
(I368
I1880
tp548
sS'23454'
p549
(I823
I3648
tp550
sS'23479'
p551
(I83
I978
tp552
sS'23478'
p553
(I158
I1172
tp554
sS'23275'
p555
(I328
I1779
tp556
sS'23274'
p557
(I320
I1756
tp558
sS'23277'
p559
(I203
I1344
tp560
sS'23276'
p561
(I434
I2107
tp562
sS'23378'
p563
(I8
I625
tp564
sS'23651'
p565
(I65
I933
tp566
sS'23273'
p567
(I537
I2476
tp568
sS'23272'
p569
(I448
I2136
tp570
sS'23374'
p571
(I175
I1250
tp572
sS'23375'
p573
(I395
I1972
tp574
sS'23376'
p575
(I436
I2113
tp576
sS'23377'
p577
(I302
I1696
tp578
sS'23370'
p579
(I361
I1869
tp580
sS'23371'
p581
(I217
I1397
tp582
sS'23372'
p583
(I272
I1585
tp584
sS'23373'
p585
(I340
I1800
tp586
sS'13156'
p587
(I212
I1373
tp588
sS'13098'
p589
(I327
I1774
tp590
sS'23407'
p591
(I576
I2627
tp592
sS'13096'
p593
(I560
I2585
tp594
sS'13097'
p595
(I421
I2044
tp596
sS'13095'
p597
(I773
I3461
tp598
sS'23088'
p599
(I149
I1140
tp600
sS'13158'
p601
(I79
I971
tp602
sS'13395'
p603
(I478
I2266
tp604
sS'13394'
p605
(I230
I1482
tp606
sS'23089'
p607
(I197
I1316
tp608
sS'13391'
p609
(I515
I2403
tp610
sS'13390'
p611
(I490
I2292
tp612
sS'13393'
p613
(I670
I3036
tp614
sS'13392'
p615
(I712
I3214
tp616
sS'23104'
p617
(I790
I3520
tp618
sS'13399'
p619
(I253
I1545
tp620
sS'13398'
p621
(I256
I1547
tp622
sS'13835'
p623
(I810
I3602
tp624
sS'23401'
p625
(I636
I2884
tp626
sS'13870'
p627
(I456
I2185
tp628
sS'13285'
p629
(I532
I2460
tp630
sS'13829'
p631
(I788
I3512
tp632
sS'23288'
p633
(I762
I3419
tp634
sS'23081'
p635
(I355
I1848
tp636
sS'23160'
p637
(I665
I3007
tp638
sS'23086'
p639
(I255
I1546
tp640
sS'13498'
p641
(I946
I4548
tp642
sS'13329'
p643
(I146
I1119
tp644
sS'13023'
p645
(I334
I1790
tp646
sS'13940'
p647
(I135
I1081
tp648
sS'23162'
p649
(I603
I2747
tp650
sS'23506'
p651
(I669
I3018
tp652
sS'13828'
p653
(I786
I3506
tp654
sS'23164'
p655
(I650
I2921
tp656
sS'23056'
p657
(I111
I1016
tp658
sS'23503'
p659
(I716
I3233
tp660
sS'23502'
p661
(I680
I3086
tp662
sS'13438'
p663
(I2
I549
tp664
sS'13439'
p665
(I501
I2355
tp666
sS'23053'
p667
(I344
I1812
tp668
sS'23281'
p669
(I768
I3444
tp670
sS'13430'
p671
(I163
I1202
tp672
sS'13432'
p673
(I31
I823
tp674
sS'23282'
p675
(I821
I3642
tp676
sS'13436'
p677
(I49
I869
tp678
sS'23459'
p679
(I504
I2365
tp680
sS'23283'
p681
(I700
I3153
tp682
sS'23458'
p683
(I466
I2217
tp684
sS'13496'
p685
(I902
I4010
tp686
sS'13795'
p687
(I663
I3002
tp688
sS'13497'
p689
(I894
I3955
tp690
sS'13494'
p691
(I898
I3986
tp692
sS'13495'
p693
(I896
I3969
tp694
sS'13971'
p695
(I232
I1484
tp696
sS'13970'
p697
(I350
I1828
tp698
sS'13973'
p699
(I405
I1995
tp700
sS'23557'
p701
(I303
I1696
tp702
sS'13975'
p703
(I617
I2806
tp704
sS'13974'
p705
(I326
I1772
tp706
sS'13977'
p707
(I414
I2024
tp708
sS'23658'
p709
(I770
I3451
tp710
sS'23657'
p711
(I171
I1235
tp712
sS'23124'
p713
(I219
I1398
tp714
sS'23655'
p715
(I205
I1349
tp716
sS'23654'
p717
(I269
I1577
tp718
sS'23653'
p719
(I51
I876
tp720
sS'23652'
p721
(I125
I1046
tp722
sS'23123'
p723
(I258
I1548
tp724
sS'23650'
p725
(I100
I1002
tp726
sS'13324'
p727
(I261
I1557
tp728
sS'13325'
p729
(I130
I1070
tp730
sS'13326'
p731
(I306
I1703
tp732
sS'13327'
p733
(I252
I1545
tp734
sS'13320'
p735
(I607
I2760
tp736
sS'13321'
p737
(I192
I1287
tp738
sS'13322'
p739
(I204
I1349
tp740
sS'13323'
p741
(I144
I1118
tp742
sS'23082'
p743
(I265
I1568
tp744
sS'23083'
p745
(I319
I1754
tp746
sS'23080'
p747
(I525
I2434
tp748
sS'13284'
p749
(I290
I1661
tp750
sS'13328'
p751
(I91
I989
tp752
sS'23087'
p753
(I213
I1377
tp754
sS'23084'
p755
(I285
I1634
tp756
sS'23085'
p757
(I210
I1366
tp758
sS'13449'
p759
(I517
I2414
tp760
sS'13448'
p761
(I438
I2117
tp762
sS'13445'
p763
(I634
I2880
tp764
sS'13444'
p765
(I357
I1862
tp766
sS'13447'
p767
(I523
I2433
tp768
sS'13446'
p769
(I684
I3098
tp770
sS'13441'
p771
(I439
I2118
tp772
sS'13440'
p773
(I551
I2551
tp774
sS'13443'
p775
(I485
I2281
tp776
sS'13442'
p777
(I435
I2109
tp778
sS'23158'
p779
(I587
I2685
tp780
sS'23159'
p781
(I598
I2729
tp782
sS'23358'
p783
(I44
I851
tp784
sS'23150'
p785
(I552
I2555
tp786
sS'23151'
p787
(I602
I2746
tp788
sS'23152'
p789
(I453
I2173
tp790
sS'23359'
p791
(I6
I618
tp792
sS'23154'
p793
(I492
I2303
tp794
sS'23155'
p795
(I267
I1572
tp796
sS'23156'
p797
(I635
I2880
tp798
sS'23157'
p799
(I666
I3009
tp800
sS'23330'
p801
(I89
I988
tp802
sS'23331'
p803
(I115
I1026
tp804
sS'23332'
p805
(I63
I924
tp806
sS'23333'
p807
(I92
I990
tp808
sS'23334'
p809
(I127
I1052
tp810
sS'23335'
p811
(I56
I900
tp812
sS'23336'
p813
(I426
I2060
tp814
sS'23337'
p815
(I470
I2233
tp816
sS'23338'
p817
(I347
I1825
tp818
sS'23339'
p819
(I543
I2497
tp820
sS'23239'
p821
(I251
I1543
tp822
sS'23238'
p823
(I922
I4247
tp824
sS'13809'
p825
(I682
I3094
tp826
sS'13808'
p827
(I742
I3381
tp828
sS'23231'
p829
(I693
I3132
tp830
sS'23230'
p831
(I652
I2924
tp832
sS'23233'
p833
(I740
I3374
tp834
sS'23232'
p835
(I582
I2666
tp836
sS'23235'
p837
(I709
I3207
tp838
sS'13800'
p839
(I612
I2776
tp840
sS'13803'
p841
(I717
I3238
tp842
sS'13802'
p843
(I660
I2993
tp844
sS'23266'
p845
(I753
I3401
tp846
sS'23153'
p847
(I419
I2038
tp848
sS'23308'
p849
(I249
I1533
tp850
sS'13871'
p851
(I536
I2474
tp852
sS'23213'
p853
(I880
I3874
tp854
sS'23576'
p855
(I863
I3815
tp856
sS'23261'
p857
(I108
I1014
tp858
sS'23379'
p859
(I24
I781
tp860
sS'23328'
p861
(I133
I1080
tp862
sS'23344'
p863
(I321
I1757
tp864
sS'23347'
p865
(I397
I1976
tp866
sS'23346'
p867
(I488
I2288
tp868
sS'23428'
p869
(I338
I1798
tp870
sS'23429'
p871
(I343
I1808
tp872
sS'23343'
p873
(I442
I2126
tp874
sS'23342'
p875
(I401
I1989
tp876
sS'23424'
p877
(I169
I1229
tp878
sS'23425'
p879
(I157
I1171
tp880
sS'23426'
p881
(I57
I902
tp882
sS'23427'
p883
(I150
I1146
tp884
sS'23349'
p885
(I128
I1053
tp886
sS'23348'
p887
(I74
I961
tp888
sS'23422'
p889
(I296
I1677
tp890
sS'23423'
p891
(I116
I1026
tp892
sS'13896'
p893
(I369
I1888
tp894
sS'13897'
p895
(I432
I2099
tp896
sS'13894'
p897
(I360
I1867
tp898
sS'13895'
p899
(I402
I1992
tp900
sS'13892'
p901
(I346
I1823
tp902
sS'13893'
p903
(I284
I1629
tp904
sS'13890'
p905
(I202
I1343
tp906
sS'13891'
p907
(I353
I1843
tp908
sS'23577'
p909
(I945
I4491
tp910
sS'13898'
p911
(I333
I1788
tp912
sS'13068'
p913
(I268
I1573
tp914
sS'23268'
p915
(I664
I3006
tp916
sS'13020'
p917
(I899
I3992
tp918
sS'23169'
p919
(I800
I3563
tp920
sS'23100'
p921
(I550
I2545
tp922
sS'13361'
p923
(I579
I2645
tp924
sS'23168'
p925
(I782
I3482
tp926
sS'23270'
p927
(I707
I3200
tp928
sS'23554'
p929
(I359
I1863
tp930
sS'23575'
p931
(I833
I3701
tp932
sS'13826'
p933
(I774
I3461
tp934
sS'23519'
p935
(I105
I1011
tp936
sS'23572'
p937
(I931
I4350
tp938
sS'23048'
p939
(I214
I1391
tp940
sS'23049'
p941
(I317
I1743
tp942
sS'23046'
p943
(I375
I1900
tp944
sS'23047'
p945
(I257
I1547
tp946
sS'23044'
p947
(I647
I2913
tp948
sS'23513'
p949
(I138
I1096
tp950
sS'23514'
p951
(I148
I1124
tp952
sS'23515'
p953
(I185
I1275
tp954
sS'23516'
p955
(I273
I1593
tp956
sS'23517'
p957
(I181
I1264
tp958
sS'13401'
p959
(I322
I1760
tp960
sS'13369'
p961
(I228
I1470
tp962
sS'23659'
p963
(I772
I3460
tp964
sS'13402'
p965
(I367
I1878
tp966
sS'13405'
p967
(I140
I1108
tp968
sS'13404'
p969
(I199
I1326
tp970
sS'13407'
p971
(I186
I1276
tp972
sS'13804'
p973
(I706
I3200
tp974
sS'13408'
p975
(I168
I1229
tp976
sS'13362'
p977
(I623
I2837
tp978
sS'13363'
p979
(I557
I2565
tp980
sS'13364'
p981
(I330
I1785
tp982
sS'13365'
p983
(I408
I2002
tp984
sS'13366'
p985
(I286
I1637
tp986
sS'13367'
p987
(I642
I2897
tp988
sS'13845'
p989
(I779
I3473
tp990
sS'13806'
p991
(I608
I2760
tp992
sS'23105'
p993
(I757
I3410
tp994
sS'13387'
p995
(I737
I3354
tp996
sS'13801'
p997
(I722
I3293
tp998
sS'13833'
p999
(I860
I3803
tp1000
sS'23234'
p1001
(I778
I3469
tp1002
sS'23237'
p1003
(I928
I4296
tp1004
sS'23236'
p1005
(I926
I4280
tp1006
sS'23604'
p1007
(I112
I1021
tp1008
sS'23605'
p1009
(I183
I1269
tp1010
sS'23606'
p1011
(I207
I1355
tp1012
sS'23607'
p1013
(I142
I1110
tp1014
sS'23600'
p1015
(I274
I1599
tp1016
sS'23601'
p1017
(I234
I1494
tp1018
sS'23602'
p1019
(I200
I1329
tp1020
sS'23603'
p1021
(I124
I1038
tp1022
sS'13849'
p1023
(I803
I3575
tp1024
sS'13848'
p1025
(I843
I3732
tp1026
sS'23608'
p1027
(I32
I826
tp1028
sS'23609'
p1029
(I59
I908
tp1030
sS'23569'
p1031
(I785
I3494
tp1032
sS'23568'
p1033
(I864
I3820
tp1034
sS'13928'
p1035
(I726
I3308
tp1036
sS'13929'
p1037
(I565
I2597
tp1038
sS'23565'
p1039
(I619
I2810
tp1040
sS'23564'
p1041
(I624
I2838
tp1042
sS'13924'
p1043
(I572
I2607
tp1044
sS'23566'
p1045
(I618
I2807
tp1046
sS'23561'
p1047
(I325
I1771
tp1048
sS'23560'
p1049
(I371
I1896
tp1050
sS'23563'
p1051
(I651
I2922
tp1052
sS'13921'
p1053
(I590
I2701
tp1054
sS'13319'
p1055
(I626
I2849
tp1056
sS'13318'
p1057
(I601
I2738
tp1058
sS'13317'
p1059
(I747
I3388
tp1060
sS'23619'
p1061
(I189
I1279
tp1062
sS'23161'
p1063
(I464
I2213
tp1064
sS'23289'
p1065
(I628
I2859
tp1066
sS'23163'
p1067
(I518
I2414
tp1068
sS'23618'
p1069
(I141
I1109
tp1070
sS'23165'
p1071
(I566
I2597
tp1072
sS'13388'
p1073
(I503
I2360
tp1074
sS'23167'
p1075
(I409
I2005
tp1076
sS'23166'
p1077
(I506
I2368
tp1078
sS'13492'
p1079
(I45
I853
tp1080
sS'13493'
p1081
(I7
I622
tp1082
sS'13490'
p1083
(I153
I1166
tp1084
sS'13491'
p1085
(I16
I732
tp1086
sS'23284'
p1087
(I731
I3323
tp1088
sS'23285'
p1089
(I781
I3479
tp1090
sS'23286'
p1091
(I633
I2875
tp1092
sS'23287'
p1093
(I713
I3214
tp1094
sS'23460'
p1095
(I583
I2668
tp1096
sS'23461'
p1097
(I594
I2726
tp1098
sS'23462'
p1099
(I423
I2052
tp1100
sS'23463'
p1101
(I422
I2048
tp1102
sS'23464'
p1103
(I365
I1875
tp1104
sS'23465'
p1105
(I342
I1806
tp1106
sS'23466'
p1107
(I231
I1482
tp1108
sS'23467'
p1109
(I295
I1675
tp1110
sS'23468'
p1111
(I877
I3857
tp1112
sS'23469'
p1113
(I916
I4107
tp1114
sS'13906'
p1115
(I856
I3783
tp1116
sS'23309'
p1117
(I184
I1274
tp1118
sS'23613'
p1119
(I119
I1030
tp1120
sS'23264'
p1121
(I266
I1570
tp1122
sS'23265'
p1123
(I64
I931
tp1124
sS'23262'
p1125
(I19
I755
tp1126
sS'23263'
p1127
(I187
I1276
tp1128
sS'23260'
p1129
(I58
I904
tp1130
sS'23599'
p1131
(I161
I1181
tp1132
sS'23301'
p1133
(I940
I4427
tp1134
sS'23300'
p1135
(I941
I4436
tp1136
sS'23303'
p1137
(I235
I1495
tp1138
sS'23302'
p1139
(I496
I2319
tp1140
sS'23305'
p1141
(I723
I3299
tp1142
sS'13937'
p1143
(I173
I1245
tp1144
sS'23307'
p1145
(I578
I2640
tp1146
sS'23269'
p1147
(I671
I3038
tp1148
sS'23567'
p1149
(I912
I4054
tp1150
sS'13869'
p1151
(I411
I2017
tp1152
sS'13147'
p1153
(I884
I3905
tp1154
sS'13148'
p1155
(I822
I3643
tp1156
sS'13149'
p1157
(I540
I2482
tp1158
sS'13868'
p1159
(I524
I2434
tp1160
sS'13930'
p1161
(I505
I2366
tp1162
sS'13386'
p1163
(I794
I3547
tp1164
sS'13228'
p1165
(I126
I1052
tp1166
sS'13384'
p1167
(I473
I2253
tp1168
sS'13382'
p1169
(I472
I2248
tp1170
sS'13383'
p1171
(I571
I2607
tp1172
sS'13380'
p1173
(I836
I3713
tp1174
sS'13381'
p1175
(I818
I3638
tp1176
sS'13932'
p1177
(I521
I2428
tp1178
sS'13227'
p1179
(I61
I912
tp1180
sS'13389'
p1181
(I545
I2514
tp1182
sS'13908'
p1183
(I869
I3835
tp1184
sS'13909'
p1185
(I593
I2725
tp1186
sS'23415'
p1187
(I88
I987
tp1188
sS'23414'
p1189
(I152
I1160
tp1190
sS'23417'
p1191
(I60
I910
tp1192
sS'23416'
p1193
(I39
I844
tp1194
sS'23411'
p1195
(I283
I1627
tp1196
sS'23410'
p1197
(I311
I1717
tp1198
sS'23413'
p1199
(I376
I1904
tp1200
sS'23412'
p1201
(I407
I2001
tp1202
sS'23102'
p1203
(I825
I3661
tp1204
sS'23418'
p1205
(I136
I1081
tp1206
sS'23533'
p1207
(I373
I1899
tp1208
sS'23304'
p1209
(I733
I3330
tp1210
sS'13523'
p1211
(I381
I1914
tp1212
sS'13520'
p1213
(I446
I2135
tp1214
sS'23108'
p1215
(I763
I3434
tp1216
sS'23541'
p1217
(I595
I2726
tp1218
sS'23419'
p1219
(I938
I4425
tp1220
sS'23540'
p1221
(I462
I2208
tp1222
sS'23115'
p1223
(I791
I3537
tp1224
sS'23224'
p1225
(I888
I3920
tp1226
sS'23095'
p1227
(I281
I1623
tp1228
sS'13958'
p1229
(I348
I1827
tp1230
sS'23103'
p1231
(I837
I3715
tp1232
sS'23137'
p1233
(I858
I3798
tp1234
sS'23097'
p1235
(I483
I2276
tp1236
sS'13933'
p1237
(I629
I2865
tp1238
sS'13972'
p1239
(I396
I1973
tp1240
sS'23101'
p1241
(I710
I3211
tp1242
sS'23648'
p1243
(I233
I1484
tp1244
sS'23649'
p1245
(I206
I1354
tp1246
sS'23523'
p1247
(I455
I2183
tp1248
sS'13961'
p1249
(I129
I1060
tp1250
sS'23525'
p1251
(I383
I1916
tp1252
sS'13967'
p1253
(I277
I1603
tp1254
sS'23138'
p1255
(I865
I3821
tp1256
sS'13965'
p1257
(I443
I2127
tp1258
sS'23640'
p1259
(I211
I1372
tp1260
sS'23528'
p1261
(I484
I2277
tp1262
sS'13968'
p1263
(I139
I1100
tp1264
sS'13969'
p1265
(I25
I785
tp1266
sS'23132'
p1267
(I427
I2064
tp1268
sS'23133'
p1269
(I394
I1969
tp1270
sS'23646'
p1271
(I164
I1202
tp1272
sS'23647'
p1273
(I392
I1940
tp1274
sS'13351'
p1275
(I725
I3308
tp1276
sS'23297'
p1277
(I943
I4439
tp1278
sS'13352'
p1279
(I756
I3403
tp1280
sS'13354'
p1281
(I674
I3075
tp1282
sS'13356'
p1283
(I703
I3159
tp1284
sS'13359'
p1285
(I736
I3349
tp1286
sS'23129'
p1287
(I909
I4036
tp1288
sS'13293'
p1289
(I428
I2074
tp1290
sS'13294'
p1291
(I450
I2161
tp1292
sS'23295'
p1293
(I767
I3442
tp1294
sS'13597'
p1295
(I194
I1296
tp1296
sS'13596'
p1297
(I287
I1654
tp1298
sS'13595'
p1299
(I240
I1510
tp1300
sS'23294'
p1301
(I441
I2121
tp1302
sS'23559'
p1303
(I308
I1703
tp1304
sS'13459'
p1305
(I640
I2893
tp1306
sS'13456'
p1307
(I29
I822
tp1308
sS'23118'
p1309
(I783
I3484
tp1310
sS'13454'
p1311
(I86
I986
tp1312
sS'13455'
p1313
(I159
I1173
tp1314
sS'13452'
p1315
(I400
I1984
tp1316
sS'13453'
p1317
(I291
I1665
tp1318
sS'13450'
p1319
(I323
I1761
tp1320
sS'13451'
p1321
(I354
I1845
tp1322
sS'23002'
p1323
(I832
I3700
tp1324
sS'23003'
p1325
(I811
I3604
tp1326
sS'23000'
p1327
(I248
I1531
tp1328
sS'23001'
p1329
(I844
I3733
tp1330
sS'23006'
p1331
(I861
I3809
tp1332
sS'23291'
p1333
(I754
I3401
tp1334
sS'23004'
p1335
(I807
I3581
tp1336
sS'23005'
p1337
(I862
I3812
tp1338
sS'23341'
p1339
(I468
I2227
tp1340
sS'23008'
p1341
(I846
I3734
tp1342
sS'23290'
p1343
(I687
I3110
tp1344
sS'23340'
p1345
(I586
I2680
tp1346
sS'13791'
p1347
(I658
I2978
tp1348
sS'23507'
p1349
(I662
I2999
tp1350
sS'13797'
p1351
(I689
I3115
tp1352
sS'13796'
p1353
(I649
I2919
tp1354
sS'13799'
p1355
(I645
I2906
tp1356
sS'13798'
p1357
(I667
I3010
tp1358
sS'13872'
p1359
(I424
I2054
tp1360
sS'23475'
p1361
(I489
I2288
tp1362
sS'23183'
p1363
(I906
I4028
tp1364
sS'23182'
p1365
(I653
I2936
tp1366
sS'23228'
p1367
(I678
I3084
tp1368
sS'23474'
p1369
(I493
I2309
tp1370
sS'23187'
p1371
(I876
I3857
tp1372
sS'23638'
p1373
(I226
I1455
tp1374
sS'13818'
p1375
(I724
I3302
tp1376
sS'23184'
p1377
(I563
I2590
tp1378
sS'23635'
p1379
(I37
I837
tp1380
sS'23634'
p1381
(I40
I844
tp1382
sS'23637'
p1383
(I50
I874
tp1384
sS'23636'
p1385
(I33
I826
tp1386
sS'23631'
p1387
(I55
I893
tp1388
sS'23630'
p1389
(I282
I1625
tp1390
sS'23633'
p1391
(I137
I1090
tp1392
sS'23632'
p1393
(I66
I935
tp1394
sS'23420'
p1395
(I937
I4419
tp1396
sS'23421'
p1397
(I104
I1011
tp1398
sS'13067'
p1399
(I377
I1911
tp1400
sS'23139'
p1401
(I854
I3774
tp1402
sS'23149'
p1403
(I429
I2080
tp1404
sS'13874'
p1405
(I514
I2401
tp1406
sS'13066'
p1407
(I568
I2604
tp1408
sS'23148'
p1409
(I622
I2825
tp1410
sS'13065'
p1411
(I399
I1984
tp1412
sS'13979'
p1413
(I556
I2563
tp1414
sS'23356'
p1415
(I5
I618
tp1416
sS'23357'
p1417
(I18
I735
tp1418
sS'23354'
p1419
(I17
I735
tp1420
sS'23355'
p1421
(I43
I851
tp1422
sS'23352'
p1423
(I131
I1070
tp1424
sS'23353'
p1425
(I48
I863
tp1426
sS'23350'
p1427
(I21
I767
tp1428
sS'23351'
p1429
(I106
I1012
tp1430
sS'23451'
p1431
(I534
I2460
tp1432
sS'23450'
p1433
(I610
I2767
tp1434
sS'23453'
p1435
(I561
I2586
tp1436
sS'23452'
p1437
(I609
I2763
tp1438
sS'23198'
p1439
(I857
I3794
tp1440
sS'13598'
p1441
(I599
I2732
tp1442
sS'23457'
p1443
(I191
I1286
tp1444
sS'23456'
p1445
(I160
I1175
tp1446
sS'13070'
p1447
(I310
I1713
tp1448
sS'13875'
p1449
(I418
I2035
tp1450
sS'23143'
p1451
(I885
I3906
tp1452
sS'23142'
p1453
(I838
I3716
tp1454
sS'23271'
p1455
(I585
I2670
tp1456
sS'23199'
p1457
(I871
I3836
tp1458
sS'13814'
p1459
(I584
I2670
tp1460
sS'13417'
p1461
(I34
I835
tp1462
sS'13876'
p1463
(I444
I2128
tp1464
sS'23113'
p1465
(I799
I3563
tp1466
sS'23573'
p1467
(I859
I3801
tp1468
sS'23440'
p1469
(I574
I2610
tp1470
sS'13069'
p1471
(I486
I2282
tp1472
sS'13899'
p1473
(I250
I1541
tp1474
sS'23134'
p1475
(I839
I3717
tp1476
sS'23293'
p1477
(I920
I4192
tp1478
sS'13877'
p1479
(I384
I1917
tp1480
sS'23279'
p1481
(I752
I3400
tp1482
sS'23278'
p1483
(I766
I3438
tp1484
sS'13001'
p1485
(I793
I3546
tp1486
sS'13000'
p1487
(I76
I964
tp1488
sS'13002'
p1489
(I784
I3490
tp1490
sS'23501'
p1491
(I694
I3136
tp1492
sS'23135'
p1493
(I848
I3740
tp1494
sS'23292'
p1495
(I554
I2562
tp1496
sS'23079'
p1497
(I460
I2192
tp1498
sS'23078'
p1499
(I559
I2568
tp1500
sS'23073'
p1501
(I452
I2163
tp1502
sS'23072'
p1503
(I535
I2467
tp1504
sS'23071'
p1505
(I637
I2887
tp1506
sS'23070'
p1507
(I544
I2498
tp1508
sS'23077'
p1509
(I639
I2888
tp1510
sS'23076'
p1511
(I528
I2439
tp1512
sS'23075'
p1513
(I656
I2957
tp1514
sS'23074'
p1515
(I507
I2381
tp1516
sS'23221'
p1517
(I812
I3606
tp1518
sS'13413'
p1519
(I75
I962
tp1520
sS'13410'
p1521
(I262
I1563
tp1522
sS'13411'
p1523
(I236
I1496
tp1524
sS'13416'
p1525
(I103
I1006
tp1526
sS'23480'
p1527
(I117
I1027
tp1528
sS'13414'
p1529
(I69
I942
tp1530
sS'13415'
p1531
(I73
I958
tp1532
sS'13813'
p1533
(I668
I3018
tp1534
sS'13418'
p1535
(I13
I670
tp1536
sS'13419'
p1537
(I26
I794
tp1538
sS'23225'
p1539
(I895
I3966
tp1540
sS'13150'
p1541
(I588
I2694
tp1542
sS'23195'
p1543
(I882
I3895
tp1544
sS'23319'
p1545
(I921
I4201
tp1546
sS'13852'
p1547
(I777
I3468
tp1548
sS'13853'
p1549
(I714
I3224
tp1550
sS'13850'
p1551
(I698
I3147
tp1552
sS'13851'
p1553
(I646
I2913
tp1554
sS'13856'
p1555
(I672
I3051
tp1556
sS'13857'
p1557
(I592
I2725
tp1558
sS'13473'
p1559
(I555
I2563
tp1560
sS'13855'
p1561
(I802
I3568
tp1562
sS'13858'
p1563
(I750
I3397
tp1564
sS'13859'
p1565
(I840
I3718
tp1566
sS'23196'
p1567
(I841
I3726
tp1568
sS'13919'
p1569
(I720
I3253
tp1570
sS'13918'
p1571
(I575
I2621
tp1572
sS'23130'
p1573
(I905
I4028
tp1574
sS'23578'
p1575
(I887
I3912
tp1576
sS'23579'
p1577
(I897
I3970
tp1578
sS'13913'
p1579
(I604
I2749
tp1580
sS'13912'
p1581
(I614
I2786
tp1582
sS'13911'
p1583
(I643
I2898
tp1584
sS'13910'
p1585
(I553
I2561
tp1586
sS'13373'
p1587
(I613
I2781
tp1588
sS'13916'
p1589
(I683
I3097
tp1590
sS'13915'
p1591
(I751
I3398
tp1592
sS'13914'
p1593
(I520
I2423
tp1594
sS'23197'
p1595
(I868
I3834
tp1596
sS'23172'
p1597
(I743
I3381
tp1598
sS'23173'
p1599
(I732
I3325
tp1600
sS'23131'
p1601
(I415
I2024
tp1602
sS'13396'
p1603
(I370
I1889
tp1604
sS'23176'
p1605
(I620
I2813
tp1606
sS'23177'
p1607
(I497
I2324
tp1608
sS'23174'
p1609
(I547
I2522
tp1610
sS'23175'
p1611
(I417
I2028
tp1612
sS'23178'
p1613
(I425
I2054
tp1614
sS'23179'
p1615
(I237
I1500
tp1616
sS'23119'
p1617
(I511
I2391
tp1618
sS'23562'
p1619
(I699
I3147
tp1620
sS'23190'
p1621
(I870
I3836
tp1622
sS'23253'
p1623
(I260
I1549
tp1624
sS'23252'
p1625
(I312
I1720
tp1626
sS'23318'
p1627
(I162
I1197
tp1628
sS'23250'
p1629
(I463
I2210
tp1630
sS'23257'
p1631
(I215
I1393
tp1632
sS'23256'
p1633
(I177
I1254
tp1634
sS'23255'
p1635
(I97
I1001
tp1636
sS'23254'
p1637
(I356
I1859
tp1638
sS'13371'
p1639
(I775
I3462
tp1640
sS'23313'
p1641
(I903
I4012
tp1642
sS'23259'
p1643
(I201
I1334
tp1644
sS'23258'
p1645
(I98
I1001
tp1646
sS'23316'
p1647
(I792
I3544
tp1648
sS'23317'
p1649
(I345
I1820
tp1650
sS'23314'
p1651
(I934
I4360
tp1652
sS'23315'
p1653
(I172
I1240
tp1654
sS'13985'
p1655
(I301
I1694
tp1656
sS'23191'
p1657
(I878
I3867
tp1658
sS'13980'
p1659
(I727
I3308
tp1660
sS'13981'
p1661
(I641
I2895
tp1662
sS'13982'
p1663
(I701
I3155
tp1664
sS'13983'
p1665
(I577
I2637
tp1666
sS'23381'
p1667
(I15
I706
tp1668
sS'23380'
p1669
(I1
I488
tp1670
sS'23383'
p1671
(I4
I584
tp1672
sS'23382'
p1673
(I27
I804
tp1674
sS'23385'
p1675
(I362
I1869
tp1676
sS'23384'
p1677
(I259
I1548
tp1678
sS'23387'
p1679
(I730
I3322
tp1680
sS'23386'
p1681
(I305
I1701
tp1682
sS'13232'
p1683
(I648
I2916
tp1684
sS'23388'
p1685
(I776
I3463
tp1686
sS'13231'
p1687
(I495
I2317
tp1688
sS'13236'
p1689
(I630
I2866
tp1690
sS'13235'
p1691
(I431
I2093
tp1692
sS'23581'
p1693
(I893
I3950
tp1694
sS'23192'
p1695
(I917
I4118
tp1696
sS'23580'
p1697
(I875
I3855
tp1698
sS'23406'
p1699
(I573
I2609
tp1700
sS'13823'
p1701
(I410
I2011
tp1702
sS'23404'
p1703
(I68
I941
tp1704
sS'23405'
p1705
(I331
I1786
tp1706
sS'23402'
p1707
(I195
I1297
tp1708
sS'23403'
p1709
(I145
I1118
tp1710
sS'13927'
p1711
(I691
I3127
tp1712
sS'13822'
p1713
(I508
I2385
tp1714
sS'13821'
p1715
(I469
I2232
tp1716
sS'23408'
p1717
(I90
I988
tp1718
sS'23409'
p1719
(I67
I938
tp1720
sS'13820'
p1721
(I675
I3078
tp1722
sS'13854'
p1723
(I690
I3117
tp1724
sS'23193'
p1725
(I919
I4155
tp1726
sS'13827'
p1727
(I830
I3696
tp1728
sS'23280'
p1729
(I769
I3446
tp1730
sS'23106'
p1731
(I780
I3473
tp1732
sS'23589'
p1733
(I95
I995
tp1734
sS'13479'
p1735
(I597
I2728
tp1736
sS'23621'
p1737
(I77
I964
tp1738
sS'13047'
p1739
(I881
I3881
tp1740
sS'13650'
p1741
(I644
I2906
tp1742
sS'23310'
p1743
(I915
I4105
tp1744
sS'23121'
p1745
(I457
I2187
tp1746
sS'13519'
p1747
(I420
I2041
tp1748
sS'23521'
p1749
(I107
I1012
tp1750
sS'23109'
p1751
(I804
I3575
tp1752
sS'23531'
p1753
(I299
I1685
tp1754
sS'23536'
p1755
(I336
I1797
tp1756
sS'13959'
p1757
(I84
I979
tp1758
sS'13963'
p1759
(I132
I1074
tp1760
sS'13957'
p1761
(I398
I1981
tp1762
sS'13956'
p1763
(I449
I2137
tp1764
sS'13955'
p1765
(I494
I2314
tp1766
sS'13954'
p1767
(I403
I1992
tp1768
sS'23107'
p1769
(I539
I2481
tp1770
sS'13952'
p1771
(I516
I2406
tp1772
sS'13951'
p1773
(I475
I2259
tp1774
sS'13950'
p1775
(I174
I1249
tp1776
sS'13342'
p1777
(I827
I3671
tp1778
sS'13343'
p1779
(I227
I1460
tp1780
sS'13340'
p1781
(I911
I4051
tp1782
sS'13341'
p1783
(I156
I1171
tp1784
sS'13346'
p1785
(I627
I2853
tp1786
sS'13347'
p1787
(I728
I3313
tp1788
sS'13344'
p1789
(I904
I4018
tp1790
sS'13345'
p1791
(I739
I3369
tp1792
sS'23574'
p1793
(I874
I3854
tp1794
sS'13469'
p1795
(I477
I2265
tp1796
sS'13468'
p1797
(I245
I1524
tp1798
sS'13463'
p1799
(I606
I2752
tp1800
sS'13917'
p1801
(I686
I3107
tp1802
sS'13460'
p1803
(I655
I2955
tp1804
sS'13467'
p1805
(I499
I2348
tp1806
sS'13466'
p1807
(I440
I2119
tp1808
sS'13465'
p1809
(I580
I2648
tp1810
sS'13464'
p1811
(I413
I2021
tp1812
sS'23136'
p1813
(I817
I3636
tp1814
sS'23570'
p1815
(I755
I3401
tp1816
sS'23039'
p1817
(I223
I1449
tp1818
sS'23038'
p1819
(I430
I2086
tp1820
sS'23037'
p1821
(I307
I1703
tp1822
sS'23036'
p1823
(I292
I1667
tp1824
sS'23035'
p1825
(I391
I1940
tp1826
sS'23034'
p1827
(I372
I1899
tp1828
sS'23033'
p1829
(I9
I629
tp1830
sS'23032'
p1831
(I62
I914
tp1832
sS'23031'
p1833
(I196
I1308
tp1834
sS'23030'
p1835
(I190
I1283
tp1836
sS'23217'
p1837
(I711
I3212
tp1838
sS'23216'
p1839
(I611
I2775
tp1840
sS'23215'
p1841
(I721
I3282
tp1842
sS'23214'
p1843
(I688
I3114
tp1844
sS'13786'
p1845
(I734
I3332
tp1846
sS'13788'
p1847
(I758
I3411
tp1848
sS'23219'
p1849
(I638
I2887
tp1850
sS'23218'
p1851
(I741
I3375
tp1852
sS'23587'
p1853
(I239
I1509
tp1854
sS'23586'
p1855
(I154
I1166
tp1856
sS'23585'
p1857
(I53
I880
tp1858
sS'23584'
p1859
(I52
I877
tp1860
sS'23583'
p1861
(I209
I1363
tp1862
sS'23582'
p1863
(I110
I1015
tp1864
sS'23628'
p1865
(I318
I1753
tp1866
sS'23629'
p1867
(I178
I1255
tp1868
sS'23626'
p1869
(I324
I1768
tp1870
sS'23627'
p1871
(I221
I1425
tp1872
sS'23624'
p1873
(I276
I1601
tp1874
sS'23625'
p1875
(I134
I1080
tp1876
sS'23622'
p1877
(I247
I1528
tp1878
sS'23623'
p1879
(I216
I1394
tp1880
sS'23620'
p1881
(I38
I841
tp1882
sS'23588'
p1883
(I41
I845
tp1884
sS'23433'
p1885
(I519
I2414
tp1886
sS'23571'
p1887
(I761
I3418
tp1888
sS'23128'
p1889
(I908
I4036
tp1890
sS'23194'
p1891
(I910
I4044
tp1892
s.