(dp0
S'14347'
p1
(I280
I1080
tp2
sS'14138'
p3
(I70
I407
tp4
sS'14177'
p5
(I217
I859
tp6
sS'14616'
p7
(I139
I586
tp8
sS'14068'
p9
(I266
I1029
tp10
sS'14341'
p11
(I177
I740
tp12
sS'14620'
p13
(I195
I786
tp14
sS'14236'
p15
(I272
I1045
tp16
sS'14054'
p17
(I178
I745
tp18
sS'14033'
p19
(I275
I1051
tp20
sS'14316'
p21
(I240
I949
tp22
sS'14268'
p23
(I184
I762
tp24
sS'14269'
p25
(I117
I541
tp26
sS'14067'
p27
(I285
I1105
tp28
sS'14075'
p29
(I41
I287
tp30
sS'14074'
p31
(I63
I344
tp32
sS'14076'
p33
(I32
I263
tp34
sS'14071'
p35
(I13
I242
tp36
sS'14070'
p37
(I4
I227
tp38
sS'14073'
p39
(I66
I370
tp40
sS'14072'
p41
(I31
I263
tp42
sS'43404'
p43
(I93
I457
tp44
sS'14065'
p45
(I239
I944
tp46
sS'43401'
p47
(I306
I1176
tp48
sS'42270'
p49
(I175
I728
tp50
sS'14062'
p51
(I248
I961
tp52
sS'14475'
p53
(I163
I686
tp54
sS'14476'
p55
(I157
I650
tp56
sS'14130'
p57
(I257
I995
tp58
sS'14312'
p59
(I235
I936
tp60
sS'14132'
p61
(I120
I547
tp62
sS'14063'
p63
(I295
I1137
tp64
sS'14101'
p65
(I111
I517
tp66
sS'14100'
p67
(I99
I466
tp68
sS'14352'
p69
(I8
I236
tp70
sS'14102'
p71
(I114
I524
tp72
sS'14105'
p73
(I112
I521
tp74
sS'14355'
p75
(I17
I248
tp76
sS'14107'
p77
(I90
I448
tp78
sS'14106'
p79
(I80
I427
tp80
sS'14109'
p81
(I73
I411
tp82
sS'14108'
p83
(I107
I502
tp84
sS'14047'
p85
(I294
I1128
tp86
sS'14168'
p87
(I253
I988
tp88
sS'14219'
p89
(I9
I237
tp90
sS'14218'
p91
(I224
I891
tp92
sS'14136'
p93
(I152
I633
tp94
sS'14057'
p95
(I209
I842
tp96
sS'14066'
p97
(I208
I840
tp98
sS'14210'
p99
(I78
I422
tp100
sS'14064'
p101
(I74
I412
tp102
sS'14137'
p103
(I160
I678
tp104
sS'14215'
p105
(I38
I284
tp106
sS'14214'
p107
(I246
I956
tp108
sS'14060'
p109
(I252
I984
tp110
sS'14061'
p111
(I55
I315
tp112
sS'14462'
p113
(I35
I274
tp114
sS'14245'
p115
(I277
I1061
tp116
sS'14460'
p117
(I118
I543
tp118
sS'14461'
p119
(I140
I587
tp120
sS'14187'
p121
(I172
I706
tp122
sS'43479'
p123
(I127
I565
tp124
sS'14638'
p125
(I214
I854
tp126
sS'14368'
p127
(I254
I992
tp128
sS'14079'
p129
(I267
I1031
tp130
sS'14450'
p131
(I304
I1170
tp132
sS'44203'
p133
(I274
I1049
tp134
sS'14357'
p135
(I301
I1149
tp136
sS'14078'
p137
(I147
I602
tp138
sS'14113'
p139
(I81
I428
tp140
sS'14182'
p141
(I249
I974
tp142
sS'14116'
p143
(I113
I521
tp144
sS'14117'
p145
(I84
I436
tp146
sS'14114'
p147
(I123
I558
tp148
sS'14530'
p149
(I211
I849
tp150
sS'14119'
p151
(I106
I487
tp152
sS'14264'
p153
(I205
I829
tp154
sS'14059'
p155
(I200
I808
tp156
sS'14209'
p157
(I3
I226
tp158
sS'14619'
p159
(I129
I567
tp160
sS'14618'
p161
(I128
I566
tp162
sS'14323'
p163
(I210
I845
tp164
sS'14599'
p165
(I30
I260
tp166
sS'14202'
p167
(I47
I299
tp168
sS'14052'
p169
(I101
I472
tp170
sS'14051'
p171
(I92
I456
tp172
sS'14050'
p173
(I77
I421
tp174
sS'14611'
p175
(I125
I561
tp176
sS'14610'
p177
(I54
I313
tp178
sS'14613'
p179
(I130
I570
tp180
sS'14612'
p181
(I135
I578
tp182
sS'14181'
p183
(I292
I1124
tp184
sS'42055'
p185
(I244
I953
tp186
sS'14353'
p187
(I233
I932
tp188
sS'14267'
p189
(I216
I857
tp190
sS'14531'
p191
(I191
I778
tp192
sS'14317'
p193
(I305
I1172
tp194
sS'14192'
p195
(I309
I1180
tp196
sS'14196'
p197
(I296
I1138
tp198
sS'14197'
p199
(I314
I1324
tp200
sS'14194'
p201
(I228
I900
tp202
sS'14195'
p203
(I315
I1331
tp204
sS'14293'
p205
(I173
I710
tp206
sS'14292'
p207
(I276
I1056
tp208
sS'14262'
p209
(I231
I918
tp210
sS'14297'
p211
(I134
I576
tp212
sS'14296'
p213
(I307
I1177
tp214
sS'14263'
p215
(I153
I641
tp216
sS'14237'
p217
(I46
I291
tp218
sS'14045'
p219
(I183
I762
tp220
sS'43345'
p221
(I212
I853
tp222
sS'14649'
p223
(I145
I599
tp224
sS'14241'
p225
(I165
I690
tp226
sS'14041'
p227
(I258
I998
tp228
sS'14042'
p229
(I2
I199
tp230
sS'14043'
p231
(I154
I642
tp232
sS'14126'
p233
(I115
I525
tp234
sS'14125'
p235
(I171
I706
tp236
sS'14124'
p237
(I100
I471
tp238
sS'14049'
p239
(I105
I486
tp240
sS'14121'
p241
(I53
I313
tp242
sS'14120'
p243
(I110
I514
tp244
sS'14440'
p245
(I10
I237
tp246
sS'14334'
p247
(I190
I775
tp248
sS'14436'
p249
(I201
I815
tp250
sS'14608'
p251
(I60
I327
tp252
sS'14609'
p253
(I57
I320
tp254
sS'14607'
p255
(I50
I302
tp256
sS'14604'
p257
(I44
I289
tp258
sS'14605'
p259
(I96
I459
tp260
sS'14602'
p261
(I68
I390
tp262
sS'14601'
p263
(I5
I229
tp264
sS'14169'
p265
(I185
I766
tp266
sS'14315'
p267
(I290
I1117
tp268
sS'14282'
p269
(I229
I900
tp270
sS'14083'
p271
(I174
I727
tp272
sS'14287'
p273
(I302
I1161
tp274
sS'14277'
p275
(I256
I993
tp276
sS'14288'
p277
(I98
I461
tp278
sS'14356'
p279
(I264
I1019
tp280
sS'14031'
p281
(I26
I259
tp282
sS'14030'
p283
(I247
I961
tp284
sS'14222'
p285
(I259
I999
tp286
sS'14223'
p287
(I49
I301
tp288
sS'14035'
p289
(I289
I1115
tp290
sS'14034'
p291
(I282
I1099
tp292
sS'14037'
p293
(I82
I433
tp294
sS'14036'
p295
(I132
I573
tp296
sS'14153'
p297
(I156
I643
tp298
sS'14038'
p299
(I95
I458
tp300
sS'14381'
p301
(I16
I246
tp302
sS'14134'
p303
(I75
I415
tp304
sS'14135'
p305
(I194
I785
tp306
sS'14385'
p307
(I29
I260
tp308
sS'14384'
p309
(I14
I244
tp310
sS'14303'
p311
(I250
I975
tp312
sS'43369'
p313
(I220
I871
tp314
sS'14639'
p315
(I149
I620
tp316
sS'14150'
p317
(I151
I630
tp318
sS'14305'
p319
(I133
I574
tp320
sS'14633'
p321
(I33
I266
tp322
sS'14632'
p323
(I218
I861
tp324
sS'14309'
p325
(I284
I1104
tp326
sS'14630'
p327
(I37
I283
tp328
sS'14637'
p329
(I76
I416
tp330
sS'14636'
p331
(I159
I662
tp332
sS'14635'
p333
(I176
I734
tp334
sS'14634'
p335
(I237
I941
tp336
sS'14434'
p337
(I28
I259
tp338
sS'14437'
p339
(I21
I252
tp340
sS'14371'
p341
(I148
I611
tp342
sS'14431'
p343
(I189
I774
tp344
sS'14430'
p345
(I262
I1005
tp346
sS'14433'
p347
(I27
I259
tp348
sS'14432'
p349
(I22
I254
tp350
sS'14534'
p351
(I291
I1118
tp352
sS'14536'
p353
(I166
I691
tp354
sS'14537'
p355
(I40
I286
tp356
sS'14439'
p357
(I19
I249
tp358
sS'14438'
p359
(I18
I249
tp360
sS'14532'
p361
(I88
I446
tp362
sS'14533'
p363
(I97
I460
tp364
sS'43528'
p365
(I265
I1020
tp366
sS'14366'
p367
(I236
I937
tp368
sS'14615'
p369
(I124
I559
tp370
sS'14022'
p371
(I94
I458
tp372
sS'14625'
p373
(I226
I894
tp374
sS'14626'
p375
(I245
I954
tp376
sS'14021'
p377
(I202
I817
tp378
sS'14026'
p379
(I86
I440
tp380
sS'14621'
p381
(I197
I797
tp382
sS'14622'
p383
(I187
I771
tp384
sS'14623'
p385
(I182
I760
tp386
sS'14203'
p387
(I242
I950
tp388
sS'14028'
p389
(I283
I1102
tp390
sS'14029'
p391
(I270
I1037
tp392
sS'14628'
p393
(I51
I303
tp394
sS'14629'
p395
(I230
I907
tp396
sS'14149'
p397
(I144
I598
tp398
sS'14148'
p399
(I199
I804
tp400
sS'14145'
p401
(I169
I698
tp402
sS'14144'
p403
(I192
I782
tp404
sS'14147'
p405
(I188
I774
tp406
sS'14146'
p407
(I15
I246
tp408
sS'14310'
p409
(I225
I894
tp410
sS'14140'
p411
(I143
I597
tp412
sS'14143'
p413
(I23
I255
tp414
sS'14142'
p415
(I136
I579
tp416
sS'14426'
p417
(I234
I933
tp418
sS'14427'
p419
(I164
I687
tp420
sS'14424'
p421
(I251
I981
tp422
sS'14425'
p423
(I207
I836
tp424
sS'14422'
p425
(I293
I1124
tp426
sS'14423'
p427
(I122
I550
tp428
sS'14327'
p429
(I204
I820
tp430
sS'14421'
p431
(I179
I747
tp432
sS'14541'
p433
(I162
I679
tp434
sS'14543'
p435
(I180
I750
tp436
sS'14542'
p437
(I273
I1047
tp438
sS'14545'
p439
(I6
I230
tp440
sS'14544'
p441
(I34
I271
tp442
sS'14428'
p443
(I232
I931
tp444
sS'14429'
p445
(I7
I234
tp446
sS'14058'
p447
(I255
I993
tp448
sS'14548'
p449
(I241
I949
tp450
sS'14651'
p451
(I181
I756
tp452
sS'14350'
p453
(I313
I1232
tp454
sS'14240'
p455
(I158
I658
tp456
sS'14019'
p457
(I170
I704
tp458
sS'14351'
p459
(I221
I873
tp460
sS'14017'
p461
(I278
I1078
tp462
sS'14016'
p463
(I150
I623
tp464
sS'14015'
p465
(I269
I1037
tp466
sS'14159'
p467
(I109
I505
tp468
sS'14013'
p469
(I58
I321
tp470
sS'14103'
p471
(I108
I503
tp472
sS'14538'
p473
(I299
I1141
tp474
sS'14010'
p475
(I167
I693
tp476
sS'14097'
p477
(I103
I473
tp478
sS'14096'
p479
(I69
I403
tp480
sS'14627'
p481
(I227
I898
tp482
sS'14242'
p483
(I219
I866
tp484
sS'14243'
p485
(I102
I472
tp486
sS'14158'
p487
(I79
I424
tp488
sS'14090'
p489
(I104
I483
tp490
sS'14156'
p491
(I64
I344
tp492
sS'14157'
p493
(I193
I783
tp494
sS'14154'
p495
(I206
I834
tp496
sS'14155'
p497
(I161
I678
tp498
sS'14152'
p499
(I121
I550
tp500
sS'14617'
p501
(I126
I564
tp502
sS'14367'
p503
(I12
I241
tp504
sS'14151'
p505
(I45
I290
tp506
sS'14412'
p507
(I24
I258
tp508
sS'14411'
p509
(I11
I240
tp510
sS'14201'
p511
(I1
I187
tp512
sS'14416'
p513
(I36
I278
tp514
sS'14415'
p515
(I297
I1138
tp516
sS'14414'
p517
(I298
I1141
tp518
sS'14552'
p519
(I186
I767
tp520
sS'14553'
p521
(I39
I285
tp522
sS'14550'
p523
(I89
I447
tp524
sS'14551'
p525
(I87
I441
tp526
sS'14557'
p527
(I312
I1197
tp528
sS'14238'
p529
(I243
I950
tp530
sS'14555'
p531
(I25
I258
tp532
sS'14024'
p533
(I310
I1188
tp534
sS'43154'
p535
(I155
I642
tp536
sS'43155'
p537
(I59
I324
tp538
sS'14390'
p539
(I146
I600
tp540
sS'14099'
p541
(I85
I438
tp542
sS'14027'
p543
(I203
I819
tp544
sS'14558'
p545
(I260
I1000
tp546
sS'14654'
p547
(I263
I1012
tp548
sS'14098'
p549
(I91
I455
tp550
sS'14009'
p551
(I213
I854
tp552
sS'14640'
p553
(I261
I1000
tp554
sS'14641'
p555
(I62
I341
tp556
sS'14646'
p557
(I138
I582
tp558
sS'14647'
p559
(I142
I595
tp560
sS'14644'
p561
(I72
I407
tp562
sS'14645'
p563
(I279
I1078
tp564
sS'14614'
p565
(I141
I594
tp566
sS'14648'
p567
(I238
I942
tp568
sS'14003'
p569
(I56
I316
tp570
sS'14004'
p571
(I67
I374
tp572
sS'14005'
p573
(I61
I333
tp574
sS'14006'
p575
(I48
I300
tp576
sS'14007'
p577
(I65
I348
tp578
sS'14080'
p579
(I287
I1110
tp580
sS'14082'
p581
(I42
I287
tp582
sS'14559'
p583
(I20
I250
tp584
sS'14084'
p585
(I83
I434
tp586
sS'14086'
p587
(I119
I545
tp588
sS'14087'
p589
(I131
I572
tp590
sS'14088'
p591
(I137
I581
tp592
sS'14370'
p593
(I303
I1166
tp594
sS'14160'
p595
(I71
I407
tp596
sS'14376'
p597
(I43
I287
tp598
sS'14166'
p599
(I52
I310
tp600
sS'14204'
p601
(I308
I1179
tp602
sS'14375'
p603
(I271
I1043
tp604
sS'14408'
p605
(I196
I797
tp606
sS'14409'
p607
(I223
I889
tp608
sS'14405'
p609
(I215
I855
tp610
sS'14406'
p611
(I198
I798
tp612
sS'14407'
p613
(I281
I1097
tp614
sS'14400'
p615
(I168
I693
tp616
sS'14055'
p617
(I288
I1111
tp618
sS'14025'
p619
(I268
I1036
tp620
sS'14224'
p621
(I311
I1193
tp622
sS'14318'
p623
(I222
I888
tp624
sS'14311'
p625
(I300
I1149
tp626
sS'14044'
p627
(I116
I532
tp628
sS'14631'
p629
(I286
I1109
tp630
s.