(dp0
S'15151'
p1
(I204
I873
tp2
sS'15169'
p3
(I226
I964
tp4
sS'15011'
p5
(I259
I1162
tp6
sS'93600'
p7
(I21
I293
tp8
sS'15160'
p9
(I114
I619
tp10
sS'15162'
p11
(I15
I280
tp12
sS'15163'
p13
(I78
I504
tp14
sS'15164'
p15
(I126
I667
tp16
sS'15165'
p17
(I197
I852
tp18
sS'15166'
p19
(I75
I491
tp20
sS'15167'
p21
(I99
I585
tp22
sS'15027'
p23
(I267
I1246
tp24
sS'15202'
p25
(I140
I697
tp26
sS'15189'
p27
(I158
I741
tp28
sS'15150'
p29
(I253
I1115
tp30
sS'15205'
p31
(I48
I400
tp32
sS'15204'
p33
(I68
I453
tp34
sS'15207'
p35
(I231
I996
tp36
sS'15206'
p37
(I66
I446
tp38
sS'15201'
p39
(I216
I927
tp40
sS'15200'
p41
(I118
I632
tp42
sS'15045'
p43
(I30
I331
tp44
sS'15044'
p45
(I19
I293
tp46
sS'15049'
p47
(I93
I567
tp48
sS'15187'
p49
(I160
I743
tp50
sS'15209'
p51
(I166
I770
tp52
sS'15208'
p53
(I246
I1055
tp54
sS'15195'
p55
(I193
I834
tp56
sS'15217'
p57
(I74
I481
tp58
sS'15048'
p59
(I220
I939
tp60
sS'15197'
p61
(I242
I1025
tp62
sS'15082'
p63
(I169
I773
tp64
sS'15196'
p65
(I251
I1091
tp66
sS'15119'
p67
(I215
I922
tp68
sS'15118'
p69
(I156
I739
tp70
sS'15115'
p71
(I80
I518
tp72
sS'15114'
p73
(I145
I711
tp74
sS'15117'
p75
(I108
I609
tp76
sS'15116'
p77
(I170
I776
tp78
sS'15111'
p79
(I221
I939
tp80
sS'15110'
p81
(I213
I917
tp82
sS'15113'
p83
(I123
I651
tp84
sS'15112'
p85
(I69
I455
tp86
sS'15216'
p87
(I172
I778
tp88
sS'15194'
p89
(I64
I443
tp90
sS'15214'
p91
(I175
I796
tp92
sS'15215'
p93
(I187
I818
tp94
sS'15058'
p95
(I136
I689
tp96
sS'15190'
p97
(I57
I422
tp98
sS'15193'
p99
(I2
I186
tp100
sS'15192'
p101
(I50
I403
tp102
sS'15054'
p103
(I29
I329
tp104
sS'15055'
p105
(I127
I668
tp106
sS'15056'
p107
(I159
I742
tp108
sS'15057'
p109
(I103
I597
tp110
sS'15199'
p111
(I45
I379
tp112
sS'15198'
p113
(I11
I274
tp114
sS'15218'
p115
(I28
I328
tp116
sS'15219'
p117
(I188
I819
tp118
sS'15050'
p119
(I206
I877
tp120
sS'15051'
p121
(I200
I861
tp122
sS'15052'
p123
(I184
I812
tp124
sS'15108'
p125
(I18
I292
tp126
sS'15109'
p127
(I71
I471
tp128
sS'15106'
p129
(I205
I874
tp130
sS'15107'
p131
(I47
I395
tp132
sS'15104'
p133
(I122
I651
tp134
sS'15105'
p135
(I157
I741
tp136
sS'15102'
p137
(I46
I380
tp138
sS'15103'
p139
(I148
I725
tp140
sS'15100'
p141
(I115
I627
tp142
sS'15101'
p143
(I24
I319
tp144
sS'15186'
p145
(I85
I530
tp146
sS'15222'
p147
(I94
I574
tp148
sS'15221'
p149
(I6
I210
tp150
sS'15220'
p151
(I26
I323
tp152
sS'15227'
p153
(I105
I599
tp154
sS'15226'
p155
(I90
I550
tp156
sS'15225'
p157
(I92
I563
tp158
sS'15224'
p159
(I107
I608
tp160
sS'15021'
p161
(I263
I1166
tp162
sS'15020'
p163
(I130
I675
tp164
sS'15023'
p165
(I37
I357
tp166
sS'15022'
p167
(I7
I242
tp168
sS'15025'
p169
(I236
I1006
tp170
sS'15024'
p171
(I167
I771
tp172
sS'15188'
p173
(I144
I709
tp174
sS'80200'
p175
(I9
I256
tp176
sS'15168'
p177
(I266
I1196
tp178
sS'15088'
p179
(I230
I996
tp180
sS'15043'
p181
(I245
I1047
tp182
sS'15042'
p183
(I244
I1040
tp184
sS'15041'
p185
(I265
I1188
tp186
sS'15172'
p187
(I58
I423
tp188
sS'15139'
p189
(I81
I518
tp190
sS'15138'
p191
(I129
I672
tp192
sS'15047'
p193
(I237
I1008
tp194
sS'15133'
p195
(I101
I596
tp196
sS'15132'
p197
(I49
I403
tp198
sS'15131'
p199
(I87
I539
tp200
sS'15130'
p201
(I137
I689
tp202
sS'15137'
p203
(I106
I604
tp204
sS'15136'
p205
(I61
I430
tp206
sS'15135'
p207
(I165
I769
tp208
sS'15134'
p209
(I77
I504
tp210
sS'15038'
p211
(I243
I1032
tp212
sS'15039'
p213
(I217
I931
tp214
sS'15238'
p215
(I180
I804
tp216
sS'15203'
p217
(I16
I280
tp218
sS'15032'
p219
(I22
I304
tp220
sS'15033'
p221
(I32
I333
tp222
sS'15030'
p223
(I176
I797
tp224
sS'15031'
p225
(I13
I278
tp226
sS'15036'
p227
(I34
I339
tp228
sS'15037'
p229
(I65
I445
tp230
sS'15034'
p231
(I25
I322
tp232
sS'15035'
p233
(I98
I583
tp234
sS'15053'
p235
(I218
I935
tp236
sS'15273'
p237
(I211
I899
tp238
sS'15223'
p239
(I171
I777
tp240
sS'15059'
p241
(I40
I361
tp242
sS'15124'
p243
(I210
I896
tp244
sS'15126'
p245
(I152
I728
tp246
sS'15127'
p247
(I3
I191
tp248
sS'15121'
p249
(I52
I410
tp250
sS'15089'
p251
(I247
I1064
tp252
sS'15123'
p253
(I12
I275
tp254
sS'15087'
p255
(I224
I958
tp256
sS'15086'
p257
(I194
I836
tp258
sS'15085'
p259
(I179
I803
tp260
sS'15084'
p261
(I201
I863
tp262
sS'15083'
p263
(I143
I706
tp264
sS'15129'
p265
(I162
I760
tp266
sS'15081'
p267
(I128
I671
tp268
sS'15080'
p269
(I198
I857
tp270
sS'15007'
p271
(I250
I1084
tp272
sS'15006'
p273
(I31
I332
tp274
sS'15005'
p275
(I121
I647
tp276
sS'15004'
p277
(I110
I614
tp278
sS'15003'
p279
(I124
I659
tp280
sS'15002'
p281
(I241
I1021
tp282
sS'15001'
p283
(I173
I780
tp284
sS'43497'
p285
(I119
I639
tp286
sS'15246'
p287
(I151
I727
tp288
sS'15009'
p289
(I182
I808
tp290
sS'15008'
p291
(I154
I735
tp292
sS'83110'
p293
(I261
I1162
tp294
sS'15241'
p295
(I196
I840
tp296
sS'15240'
p297
(I181
I804
tp298
sS'15243'
p299
(I82
I518
tp300
sS'15242'
p301
(I42
I363
tp302
sS'15245'
p303
(I100
I594
tp304
sS'15244'
p305
(I191
I825
tp306
sS'15247'
p307
(I111
I615
tp308
sS'15180'
p309
(I146
I721
tp310
sS'15040'
p311
(I227
I967
tp312
sS'15156'
p313
(I258
I1151
tp314
sS'15098'
p315
(I59
I424
tp316
sS'15099'
p317
(I86
I537
tp318
sS'15153'
p319
(I185
I815
tp320
sS'15152'
p321
(I163
I760
tp322
sS'15155'
p323
(I113
I619
tp324
sS'15154'
p325
(I104
I597
tp326
sS'15157'
p327
(I120
I645
tp328
sS'15237'
p329
(I214
I919
tp330
sS'15090'
p331
(I79
I517
tp332
sS'15091'
p333
(I72
I478
tp334
sS'15092'
p335
(I97
I582
tp336
sS'15093'
p337
(I150
I726
tp338
sS'15094'
p339
(I232
I999
tp340
sS'15095'
p341
(I132
I681
tp342
sS'15096'
p343
(I252
I1105
tp344
sS'15097'
p345
(I88
I543
tp346
sS'15010'
p347
(I84
I530
tp348
sS'15212'
p349
(I155
I736
tp350
sS'15012'
p351
(I249
I1073
tp352
sS'15013'
p353
(I55
I417
tp354
sS'15014'
p355
(I248
I1068
tp356
sS'15015'
p357
(I8
I256
tp358
sS'15016'
p359
(I17
I286
tp360
sS'15017'
p361
(I44
I366
tp362
sS'15018'
p363
(I209
I894
tp364
sS'15019'
p365
(I41
I362
tp366
sS'15239'
p367
(I190
I825
tp368
sS'15191'
p369
(I177
I798
tp370
sS'90240'
p371
(I147
I723
tp372
sS'15252'
p373
(I256
I1136
tp374
sS'15253'
p375
(I233
I1000
tp376
sS'15250'
p377
(I142
I704
tp378
sS'15251'
p379
(I260
I1162
tp380
sS'15046'
p381
(I239
I1012
tp382
sS'15213'
p383
(I39
I360
tp384
sS'15234'
p385
(I228
I967
tp386
sS'15235'
p387
(I235
I1005
tp388
sS'90560'
p389
(I73
I478
tp390
sS'15236'
p391
(I219
I935
tp392
sS'15262'
p393
(I89
I548
tp394
sS'15142'
p395
(I234
I1001
tp396
sS'15143'
p397
(I53
I414
tp398
sS'15140'
p399
(I102
I596
tp400
sS'15141'
p401
(I117
I631
tp402
sS'15146'
p403
(I63
I441
tp404
sS'15147'
p405
(I112
I617
tp406
sS'15144'
p407
(I76
I500
tp408
sS'15145'
p409
(I36
I346
tp410
sS'15230'
p411
(I178
I800
tp412
sS'15148'
p413
(I135
I688
tp414
sS'15149'
p415
(I174
I785
tp416
sS'15210'
p417
(I223
I947
tp418
sS'15231'
p419
(I222
I942
tp420
sS'15267'
p421
(I43
I364
tp422
sS'15266'
p423
(I23
I317
tp424
sS'15265'
p425
(I189
I820
tp426
sS'15264'
p427
(I212
I912
tp428
sS'15232'
p429
(I10
I273
tp430
sS'15261'
p431
(I54
I415
tp432
sS'15260'
p433
(I202
I863
tp434
sS'15233'
p435
(I109
I612
tp436
sS'15269'
p437
(I27
I326
tp438
sS'15268'
p439
(I20
I293
tp440
sS'15065'
p441
(I33
I333
tp442
sS'15064'
p443
(I38
I359
tp444
sS'15067'
p445
(I95
I580
tp446
sS'15066'
p447
(I51
I405
tp448
sS'15061'
p449
(I56
I422
tp450
sS'15060'
p451
(I35
I339
tp452
sS'15063'
p453
(I1
I184
tp454
sS'15062'
p455
(I5
I210
tp456
sS'15211'
p457
(I141
I698
tp458
sS'15069'
p459
(I229
I969
tp460
sS'15068'
p461
(I225
I963
tp462
sS'15159'
p463
(I153
I729
tp464
sS'15228'
p465
(I138
I689
tp466
sS'15158'
p467
(I262
I1163
tp468
sS'15026'
p469
(I238
I1011
tp470
sS'15029'
p471
(I164
I763
tp472
sS'15179'
p473
(I208
I882
tp474
sS'15028'
p475
(I139
I692
tp476
sS'15177'
p477
(I60
I425
tp478
sS'15176'
p479
(I257
I1147
tp480
sS'15175'
p481
(I96
I581
tp482
sS'15174'
p483
(I91
I562
tp484
sS'15173'
p485
(I264
I1174
tp486
sS'15184'
p487
(I4
I203
tp488
sS'15171'
p489
(I125
I666
tp490
sS'15170'
p491
(I134
I683
tp492
sS'15270'
p493
(I67
I451
tp494
sS'15271'
p495
(I62
I438
tp496
sS'15272'
p497
(I199
I859
tp498
sS'15185'
p499
(I195
I839
tp500
sS'15274'
p501
(I131
I675
tp502
sS'15128'
p503
(I255
I1133
tp504
sS'15182'
p505
(I183
I810
tp506
sS'15183'
p507
(I168
I771
tp508
sS'15076'
p509
(I133
I682
tp510
sS'15077'
p511
(I192
I833
tp512
sS'15074'
p513
(I240
I1012
tp514
sS'15075'
p515
(I254
I1130
tp516
sS'15072'
p517
(I207
I882
tp518
sS'15073'
p519
(I14
I279
tp520
sS'15070'
p521
(I70
I466
tp522
sS'15071'
p523
(I83
I525
tp524
sS'15181'
p525
(I186
I815
tp526
sS'15078'
p527
(I203
I873
tp528
sS'15079'
p529
(I116
I628
tp530
sS'15178'
p531
(I149
I725
tp532
sS'15229'
p533
(I161
I756
tp534
s.