(dp0
S'16079'
p1
(I63
I453
tp2
sS'16078'
p3
(I232
I1017
tp4
sS'16073'
p5
(I23
I352
tp6
sS'16072'
p7
(I78
I496
tp8
sS'16071'
p9
(I263
I1089
tp10
sS'16070'
p11
(I19
I339
tp12
sS'16077'
p13
(I66
I461
tp14
sS'16076'
p15
(I289
I1178
tp16
sS'16075'
p17
(I47
I401
tp18
sS'16074'
p19
(I275
I1126
tp20
sS'43299'
p21
(I170
I802
tp22
sS'16427'
p23
(I5
I279
tp24
sS'16421'
p25
(I199
I907
tp26
sS'16149'
p27
(I370
I1529
tp28
sS'16579'
p29
(I363
I1504
tp30
sS'16570'
p31
(I342
I1405
tp32
sS'43476'
p33
(I149
I727
tp34
sS'16172'
p35
(I100
I577
tp36
sS'16173'
p37
(I261
I1082
tp38
sS'16171'
p39
(I142
I701
tp40
sS'16174'
p41
(I192
I886
tp42
sS'16253'
p43
(I183
I841
tp44
sS'16252'
p45
(I146
I723
tp46
sS'16251'
p47
(I162
I766
tp48
sS'16250'
p49
(I203
I925
tp50
sS'16257'
p51
(I172
I805
tp52
sS'16256'
p53
(I168
I785
tp54
sS'16255'
p55
(I187
I857
tp56
sS'16254'
p57
(I177
I823
tp58
sS'16259'
p59
(I165
I775
tp60
sS'16258'
p61
(I175
I818
tp62
sS'16316'
p63
(I15
I325
tp64
sS'16317'
p65
(I128
I653
tp66
sS'16315'
p67
(I139
I694
tp68
sS'16279'
p69
(I76
I485
tp70
sS'16381'
p71
(I105
I580
tp72
sS'16384'
p73
(I89
I527
tp74
sS'16386'
p75
(I126
I649
tp76
sS'43112'
p77
(I224
I986
tp78
sS'43114'
p79
(I272
I1123
tp80
sS'16402'
p81
(I112
I599
tp82
sS'16403'
p83
(I159
I760
tp84
sS'16409'
p85
(I233
I1018
tp86
sS'16532'
p87
(I348
I1422
tp88
sS'16533'
p89
(I353
I1444
tp90
sS'16109'
p91
(I181
I841
tp92
sS'16531'
p93
(I244
I1032
tp94
sS'16536'
p95
(I325
I1355
tp96
sS'16534'
p97
(I328
I1361
tp98
sS'16535'
p99
(I375
I1555
tp100
sS'16103'
p101
(I179
I832
tp102
sS'16102'
p103
(I53
I424
tp104
sS'16101'
p105
(I220
I966
tp106
sS'16100'
p107
(I307
I1258
tp108
sS'16107'
p109
(I315
I1289
tp110
sS'16106'
p111
(I198
I907
tp112
sS'16104'
p113
(I323
I1325
tp114
sS'22122'
p115
(I305
I1251
tp116
sS'22123'
p117
(I338
I1383
tp118
sS'22120'
p119
(I206
I931
tp120
sS'22121'
p121
(I207
I933
tp122
sS'22126'
p123
(I267
I1107
tp124
sS'16039'
p125
(I140
I699
tp126
sS'16038'
p127
(I108
I582
tp128
sS'16037'
p129
(I237
I1025
tp130
sS'16036'
p131
(I2
I268
tp132
sS'16035'
p133
(I134
I670
tp134
sS'16034'
p135
(I99
I577
tp136
sS'16033'
p137
(I50
I407
tp138
sS'16032'
p139
(I200
I908
tp140
sS'16031'
p141
(I3
I269
tp142
sS'16030'
p143
(I122
I642
tp144
sS'16216'
p145
(I85
I509
tp146
sS'16215'
p147
(I57
I429
tp148
sS'16214'
p149
(I35
I388
tp150
sS'16213'
p151
(I72
I474
tp152
sS'16212'
p153
(I101
I577
tp154
sS'16211'
p155
(I145
I721
tp156
sS'16210'
p157
(I17
I327
tp158
sS'16219'
p159
(I38
I391
tp160
sS'16587'
p161
(I349
I1430
tp162
sS'16586'
p163
(I340
I1399
tp164
sS'16585'
p165
(I347
I1415
tp166
sS'16584'
p167
(I345
I1411
tp168
sS'16581'
p169
(I212
I946
tp170
sS'16589'
p171
(I295
I1203
tp172
sS'16588'
p173
(I240
I1029
tp174
sS'16512'
p175
(I14
I324
tp176
sS'16363'
p177
(I152
I741
tp178
sS'16361'
p179
(I119
I638
tp180
sS'16360'
p181
(I144
I712
tp182
sS'16368'
p183
(I94
I556
tp184
sS'16515'
p185
(I217
I961
tp186
sS'16516'
p187
(I130
I659
tp188
sS'16527'
p189
(I361
I1478
tp190
sS'16526'
p191
(I211
I946
tp192
sS'16529'
p193
(I300
I1231
tp194
sS'16137'
p195
(I262
I1084
tp196
sS'16099'
p197
(I197
I907
tp198
sS'16098'
p199
(I373
I1534
tp200
sS'16549'
p201
(I308
I1258
tp202
sS'16548'
p203
(I288
I1177
tp204
sS'16091'
p205
(I296
I1205
tp206
sS'16090'
p207
(I364
I1508
tp208
sS'16093'
p209
(I304
I1251
tp210
sS'16092'
p211
(I330
I1365
tp212
sS'16095'
p213
(I319
I1309
tp214
sS'16546'
p215
(I259
I1078
tp216
sS'16097'
p217
(I372
I1534
tp218
sS'16096'
p219
(I335
I1381
tp220
sS'16064'
p221
(I75
I478
tp222
sS'16065'
p223
(I180
I834
tp224
sS'16067'
p225
(I213
I954
tp226
sS'16060'
p227
(I238
I1025
tp228
sS'16061'
p229
(I68
I468
tp230
sS'16062'
p231
(I277
I1130
tp232
sS'16063'
p233
(I95
I557
tp234
sS'16147'
p235
(I290
I1180
tp236
sS'16146'
p237
(I160
I763
tp238
sS'16145'
p239
(I190
I871
tp240
sS'16144'
p241
(I253
I1065
tp242
sS'16068'
p243
(I37
I390
tp244
sS'16069'
p245
(I225
I987
tp246
sS'16326'
p247
(I123
I642
tp248
sS'16325'
p249
(I102
I577
tp250
sS'16045'
p251
(I194
I893
tp252
sS'16323'
p253
(I143
I702
tp254
sS'16320'
p255
(I132
I665
tp256
sS'16514'
p257
(I151
I736
tp258
sS'16328'
p259
(I111
I593
tp260
sS'16248'
p261
(I147
I724
tp262
sS'16249'
p263
(I184
I842
tp264
sS'16244'
p265
(I31
I374
tp266
sS'16245'
p267
(I141
I699
tp268
sS'16246'
p269
(I154
I742
tp270
sS'16247'
p271
(I133
I668
tp272
sS'16240'
p273
(I62
I442
tp274
sS'16241'
p275
(I67
I467
tp276
sS'16242'
p277
(I64
I453
tp278
sS'16243'
p279
(I82
I501
tp280
sS'43125'
p281
(I26
I358
tp282
sS'43129'
p283
(I311
I1264
tp284
sS'43128'
p285
(I265
I1094
tp286
sS'16392'
p287
(I294
I1200
tp288
sS'16390'
p289
(I344
I1409
tp290
sS'16396'
p291
(I299
I1231
tp292
sS'16397'
p293
(I357
I1458
tp294
sS'16394'
p295
(I298
I1230
tp296
sS'16398'
p297
(I362
I1498
tp298
sS'16399'
p299
(I367
I1523
tp300
sS'16432'
p301
(I208
I943
tp302
sS'16436'
p303
(I186
I854
tp304
sS'16434'
p305
(I92
I543
tp306
sS'16059'
p307
(I260
I1080
tp308
sS'16058'
p309
(I113
I601
tp310
sS'16509'
p311
(I251
I1056
tp312
sS'16508'
p313
(I242
I1031
tp314
sS'16055'
p315
(I276
I1128
tp316
sS'16506'
p317
(I61
I435
tp318
sS'16505'
p319
(I246
I1042
tp320
sS'16056'
p321
(I334
I1381
tp322
sS'16051'
p323
(I24
I353
tp324
sS'16502'
p325
(I195
I895
tp326
sS'16053'
p327
(I33
I376
tp328
sS'16500'
p329
(I293
I1198
tp330
sS'16558'
p331
(I378
I1565
tp332
sS'16028'
p333
(I49
I404
tp334
sS'16029'
p335
(I121
I642
tp336
sS'16020'
p337
(I70
I470
tp338
sS'16021'
p339
(I39
I395
tp340
sS'16022'
p341
(I227
I990
tp342
sS'16023'
p343
(I84
I507
tp344
sS'16024'
p345
(I241
I1030
tp346
sS'16025'
p347
(I42
I397
tp348
sS'16026'
p349
(I153
I742
tp350
sS'16027'
p351
(I188
I861
tp352
sS'16200'
p353
(I339
I1389
tp354
sS'16201'
p355
(I271
I1121
tp356
sS'16202'
p357
(I127
I652
tp358
sS'16203'
p359
(I118
I638
tp360
sS'16204'
p361
(I125
I649
tp362
sS'16590'
p363
(I358
I1465
tp364
sS'16591'
p365
(I350
I1430
tp366
sS'16592'
p367
(I329
I1364
tp368
sS'16593'
p369
(I266
I1104
tp370
sS'16594'
p371
(I222
I977
tp372
sS'16595'
p373
(I234
I1019
tp374
sS'16596'
p375
(I301
I1238
tp376
sS'16597'
p377
(I98
I574
tp378
sS'16598'
p379
(I387
I1676
tp380
sS'16611'
p381
(I376
I1556
tp382
sS'16610'
p383
(I369
I1528
tp384
sS'16114'
p385
(I173
I806
tp386
sS'16115'
p387
(I341
I1402
tp388
sS'16116'
p389
(I343
I1409
tp390
sS'16117'
p391
(I245
I1039
tp392
sS'16110'
p393
(I352
I1432
tp394
sS'16111'
p395
(I310
I1263
tp396
sS'16112'
p397
(I359
I1473
tp398
sS'16113'
p399
(I255
I1068
tp400
sS'43410'
p401
(I239
I1025
tp402
sS'16118'
p403
(I346
I1412
tp404
sS'16119'
p405
(I182
I841
tp406
sS'16275'
p407
(I164
I772
tp408
sS'16274'
p409
(I28
I364
tp410
sS'16277'
p411
(I88
I527
tp412
sS'16276'
p413
(I109
I586
tp414
sS'16271'
p415
(I46
I400
tp416
sS'16379'
p417
(I117
I633
tp418
sS'16273'
p419
(I87
I518
tp420
sS'16272'
p421
(I13
I323
tp422
sS'16375'
p423
(I107
I581
tp424
sS'16377'
p425
(I115
I625
tp426
sS'16370'
p427
(I80
I498
tp428
sS'16278'
p429
(I34
I376
tp430
sS'16372'
p431
(I137
I692
tp432
sS'42291'
p433
(I377
I1558
tp434
sS'16389'
p435
(I324
I1338
tp436
sS'42200'
p437
(I337
I1382
tp438
sS'43212'
p439
(I380
I1572
tp440
sS'16551'
p441
(I355
I1446
tp442
sS'16554'
p443
(I333
I1372
tp444
sS'16555'
p445
(I384
I1607
tp446
sS'16556'
p447
(I382
I1577
tp448
sS'16557'
p449
(I365
I1514
tp450
sS'16129'
p451
(I281
I1147
tp452
sS'16128'
p453
(I270
I1120
tp454
sS'16552'
p455
(I291
I1183
tp456
sS'16125'
p457
(I124
I645
tp458
sS'16124'
p459
(I48
I403
tp460
sS'16127'
p461
(I9
I301
tp462
sS'16126'
p463
(I16
I326
tp464
sS'16121'
p465
(I176
I820
tp466
sS'16120'
p467
(I91
I542
tp468
sS'16123'
p469
(I54
I426
tp470
sS'16122'
p471
(I216
I961
tp472
sS'16088'
p473
(I366
I1519
tp474
sS'16089'
p475
(I351
I1432
tp476
sS'16082'
p477
(I209
I944
tp478
sS'16083'
p479
(I174
I818
tp480
sS'16080'
p481
(I287
I1168
tp482
sS'16081'
p483
(I51
I415
tp484
sS'16086'
p485
(I77
I490
tp486
sS'16087'
p487
(I321
I1321
tp488
sS'16084'
p489
(I20
I342
tp490
sS'16085'
p491
(I280
I1143
tp492
sS'16011'
p493
(I215
I957
tp494
sS'16159'
p495
(I40
I395
tp496
sS'16015'
p497
(I81
I499
tp498
sS'16014'
p499
(I235
I1022
tp500
sS'16017'
p501
(I65
I458
tp502
sS'16016'
p503
(I221
I974
tp504
sS'16019'
p505
(I185
I853
tp506
sS'16018'
p507
(I69
I470
tp508
sS'16155'
p509
(I381
I1577
tp510
sS'16156'
p511
(I379
I1566
tp512
sS'16157'
p513
(I356
I1452
tp514
sS'16331'
p515
(I73
I475
tp516
sS'16333'
p517
(I110
I592
tp518
sS'16335'
p519
(I156
I747
tp520
sS'16336'
p521
(I71
I473
tp522
sS'16337'
p523
(I83
I504
tp524
sS'16338'
p525
(I155
I745
tp526
sS'16239'
p527
(I22
I350
tp528
sS'16238'
p529
(I18
I332
tp530
sS'16231'
p531
(I29
I371
tp532
sS'16230'
p533
(I11
I318
tp534
sS'16235'
p535
(I52
I420
tp536
sS'16237'
p537
(I157
I751
tp538
sS'16236'
p539
(I59
I433
tp540
sS'43130'
p541
(I269
I1116
tp542
sS'43131'
p543
(I292
I1192
tp544
sS'43132'
p545
(I282
I1147
tp546
sS'43134'
p547
(I312
I1265
tp548
sS'43135'
p549
(I302
I1240
tp550
sS'43136'
p551
(I167
I783
tp552
sS'43137'
p553
(I278
I1133
tp554
sS'16507'
p555
(I202
I923
tp556
sS'16054'
p557
(I43
I397
tp558
sS'16057'
p559
(I218
I964
tp560
sS'16504'
p561
(I228
I990
tp562
sS'16167'
p563
(I371
I1532
tp564
sS'16050'
p565
(I74
I477
tp566
sS'16345'
p567
(I114
I605
tp568
sS'16347'
p569
(I79
I498
tp570
sS'16346'
p571
(I150
I736
tp572
sS'16341'
p573
(I148
I725
tp574
sS'22119'
p575
(I258
I1074
tp576
sS'16343'
p577
(I163
I771
tp578
sS'16168'
p579
(I158
I758
tp580
sS'16424'
p581
(I27
I359
tp582
sS'16425'
p583
(I205
I930
tp584
sS'16426'
p585
(I120
I640
tp586
sS'16052'
p587
(I257
I1071
tp588
sS'16420'
p589
(I303
I1246
tp590
sS'16348'
p591
(I171
I804
tp592
sS'16422'
p593
(I21
I344
tp594
sS'16423'
p595
(I1
I146
tp596
sS'16046'
p597
(I106
I581
tp598
sS'16158'
p599
(I279
I1134
tp600
sS'16010'
p601
(I254
I1066
tp602
sS'16518'
p603
(I214
I954
tp604
sS'16519'
p605
(I331
I1365
tp606
sS'16048'
p607
(I136
I689
tp608
sS'16049'
p609
(I204
I927
tp610
sS'16510'
p611
(I256
I1070
tp612
sS'16047'
p613
(I231
I1014
tp614
sS'16044'
p615
(I104
I579
tp616
sS'16513'
p617
(I223
I983
tp618
sS'16042'
p619
(I250
I1052
tp620
sS'16043'
p621
(I116
I628
tp622
sS'16040'
p623
(I236
I1024
tp624
sS'16517'
p625
(I229
I1009
tp626
sS'16150'
p627
(I383
I1601
tp628
sS'16605'
p629
(I243
I1031
tp630
sS'16606'
p631
(I318
I1300
tp632
sS'16607'
p633
(I388
I1682
tp634
sS'16600'
p635
(I273
I1125
tp636
sS'16601'
p637
(I248
I1047
tp638
sS'16602'
p639
(I274
I1125
tp640
sS'16603'
p641
(I385
I1652
tp642
sS'16608'
p643
(I368
I1528
tp644
sS'16609'
p645
(I332
I1367
tp646
sS'16565'
p647
(I285
I1155
tp648
sS'16561'
p649
(I389
I1687
tp650
sS'16560'
p651
(I386
I1670
tp652
sS'16161'
p653
(I41
I396
tp654
sS'16160'
p655
(I129
I655
tp656
sS'16163'
p657
(I10
I316
tp658
sS'16162'
p659
(I58
I431
tp660
sS'16165'
p661
(I4
I271
tp662
sS'16164'
p663
(I8
I300
tp664
sS'16041'
p665
(I97
I565
tp666
sS'16166'
p667
(I166
I780
tp668
sS'16281'
p669
(I103
I578
tp670
sS'16262'
p671
(I283
I1153
tp672
sS'16260'
p673
(I90
I534
tp674
sS'16261'
p675
(I284
I1155
tp676
sS'16302'
p677
(I96
I559
tp678
sS'16415'
p679
(I309
I1260
tp680
sS'16417'
p681
(I322
I1323
tp682
sS'16416'
p683
(I313
I1266
tp684
sS'16410'
p685
(I314
I1282
tp686
sS'16419'
p687
(I178
I825
tp688
sS'16418'
p689
(I320
I1319
tp690
sS'42182'
p691
(I7
I299
tp692
sS'16521'
p693
(I131
I662
tp694
sS'16523'
p695
(I196
I897
tp696
sS'16522'
p697
(I60
I433
tp698
sS'16525'
p699
(I286
I1164
tp700
sS'16524'
p701
(I252
I1058
tp702
sS'16138'
p703
(I336
I1381
tp704
sS'16139'
p705
(I56
I429
tp706
sS'16136'
p707
(I161
I764
tp708
sS'16528'
p709
(I326
I1359
tp710
sS'16134'
p711
(I32
I375
tp712
sS'16135'
p713
(I316
I1294
tp714
sS'16132'
p715
(I210
I946
tp716
sS'16133'
p717
(I201
I917
tp718
sS'16130'
p719
(I44
I399
tp720
sS'43449'
p721
(I138
I693
tp722
sS'16002'
p723
(I36
I389
tp724
sS'16003'
p725
(I189
I871
tp726
sS'16001'
p727
(I169
I798
tp728
sS'16006'
p729
(I193
I889
tp730
sS'16007'
p731
(I247
I1045
tp732
sS'16004'
p733
(I219
I965
tp734
sS'16005'
p735
(I297
I1209
tp736
sS'16008'
p737
(I317
I1298
tp738
sS'16009'
p739
(I191
I885
tp740
sS'16228'
p741
(I12
I323
tp742
sS'16229'
p743
(I45
I400
tp744
sS'16222'
p745
(I25
I353
tp746
sS'16223'
p747
(I55
I427
tp748
sS'16227'
p749
(I30
I374
tp750
sS'16225'
p751
(I6
I291
tp752
sS'16357'
p753
(I268
I1109
tp754
sS'16108'
p755
(I327
I1361
tp756
sS'16353'
p757
(I93
I551
tp758
sS'16350'
p759
(I135
I672
tp760
sS'16542'
p761
(I374
I1554
tp762
sS'16358'
p763
(I249
I1048
tp764
sS'16359'
p765
(I230
I1013
tp766
sS'22118'
p767
(I306
I1255
tp768
sS'16511'
p769
(I86
I511
tp770
sS'16094'
p771
(I354
I1445
tp772
sS'16538'
p773
(I360
I1475
tp774
sS'16428'
p775
(I264
I1091
tp776
sS'16429'
p777
(I226
I989
tp778
s.