(dp0
S'17229'
p1
(I254
I1166
tp2
sS'17228'
p3
(I269
I1228
tp4
sS'17225'
p5
(I336
I1475
tp6
sS'17224'
p7
(I390
I1698
tp8
sS'17227'
p9
(I300
I1351
tp10
sS'17226'
p11
(I327
I1454
tp12
sS'17221'
p13
(I379
I1644
tp14
sS'17220'
p15
(I349
I1530
tp16
sS'17223'
p17
(I258
I1188
tp18
sS'17222'
p19
(I173
I883
tp20
sS'17388'
p21
(I61
I546
tp22
sS'17389'
p23
(I55
I530
tp24
sS'17382'
p25
(I311
I1388
tp26
sS'17383'
p27
(I249
I1154
tp28
sS'17380'
p29
(I139
I755
tp30
sS'17381'
p31
(I84
I609
tp32
sS'17386'
p33
(I187
I916
tp34
sS'17387'
p35
(I160
I820
tp36
sS'17384'
p37
(I88
I623
tp38
sS'17385'
p39
(I69
I563
tp40
sS'17258'
p41
(I278
I1272
tp42
sS'17259'
p43
(I276
I1251
tp44
sS'17313'
p45
(I192
I932
tp46
sS'17312'
p47
(I143
I764
tp48
sS'17315'
p49
(I365
I1587
tp50
sS'17314'
p51
(I401
I1762
tp52
sS'17317'
p53
(I252
I1161
tp54
sS'17316'
p55
(I204
I987
tp56
sS'17250'
p57
(I339
I1480
tp58
sS'17251'
p59
(I361
I1583
tp60
sS'17252'
p61
(I320
I1428
tp62
sS'17253'
p63
(I334
I1468
tp64
sS'17254'
p65
(I326
I1451
tp66
sS'17255'
p67
(I315
I1413
tp68
sS'17256'
p69
(I317
I1418
tp70
sS'17257'
p71
(I293
I1322
tp72
sS'17030'
p73
(I395
I1744
tp74
sS'17031'
p75
(I402
I1780
tp76
sS'17032'
p77
(I197
I964
tp78
sS'17033'
p79
(I237
I1106
tp80
sS'17034'
p81
(I251
I1160
tp82
sS'17035'
p83
(I371
I1603
tp84
sS'17036'
p85
(I376
I1622
tp86
sS'17037'
p87
(I332
I1460
tp88
sS'17038'
p89
(I344
I1505
tp90
sS'17039'
p91
(I153
I786
tp92
sS'17139'
p93
(I141
I758
tp94
sS'17138'
p95
(I89
I626
tp96
sS'17429'
p97
(I78
I591
tp98
sS'17428'
p99
(I35
I461
tp100
sS'17131'
p101
(I56
I536
tp102
sS'17422'
p103
(I101
I654
tp104
sS'17421'
p105
(I309
I1380
tp106
sS'17132'
p107
(I118
I687
tp108
sS'17135'
p109
(I244
I1143
tp110
sS'17426'
p111
(I20
I391
tp112
sS'17137'
p113
(I34
I459
tp114
sS'17424'
p115
(I299
I1341
tp116
sS'17045'
p117
(I335
I1472
tp118
sS'17044'
p119
(I367
I1592
tp120
sS'17047'
p121
(I95
I647
tp122
sS'17046'
p123
(I348
I1527
tp124
sS'17041'
p125
(I202
I982
tp126
sS'17040'
p127
(I280
I1279
tp128
sS'17043'
p129
(I364
I1586
tp130
sS'17042'
p131
(I219
I1039
tp132
sS'17049'
p133
(I177
I891
tp134
sS'17048'
p135
(I264
I1208
tp136
sS'17348'
p137
(I3
I259
tp138
sS'17349'
p139
(I159
I818
tp140
sS'17346'
p141
(I48
I502
tp142
sS'17347'
p143
(I8
I318
tp144
sS'17344'
p145
(I199
I968
tp146
sS'17345'
p147
(I9
I328
tp148
sS'17342'
p149
(I12
I363
tp150
sS'17343'
p151
(I176
I888
tp152
sS'17340'
p153
(I26
I425
tp154
sS'17341'
p155
(I5
I292
tp156
sS'17018'
p157
(I108
I668
tp158
sS'17188'
p159
(I241
I1124
tp160
sS'17189'
p161
(I281
I1280
tp162
sS'17263'
p163
(I397
I1754
tp164
sS'17019'
p165
(I373
I1618
tp166
sS'17265'
p167
(I368
I1599
tp168
sS'17264'
p169
(I366
I1589
tp170
sS'17267'
p171
(I30
I439
tp172
sS'17180'
p173
(I13
I371
tp174
sS'17409'
p175
(I70
I565
tp176
sS'17182'
p177
(I313
I1394
tp178
sS'17183'
p179
(I65
I554
tp180
sS'17184'
p181
(I67
I561
tp182
sS'17185'
p183
(I246
I1151
tp184
sS'17186'
p185
(I291
I1310
tp186
sS'17187'
p187
(I404
I1831
tp188
sS'17154'
p189
(I436
I2063
tp190
sS'17166'
p191
(I15
I377
tp192
sS'17167'
p193
(I4
I284
tp194
sS'17164'
p195
(I7
I317
tp196
sS'17165'
p197
(I27
I426
tp198
sS'17162'
p199
(I29
I427
tp200
sS'17163'
p201
(I46
I485
tp202
sS'17160'
p203
(I18
I388
tp204
sS'17161'
p205
(I1
I243
tp206
sS'17001'
p207
(I370
I1600
tp208
sS'17000'
p209
(I178
I892
tp210
sS'17003'
p211
(I90
I632
tp212
sS'17002'
p213
(I350
I1533
tp214
sS'17005'
p215
(I422
I1979
tp216
sS'17159'
p217
(I37
I464
tp218
sS'17168'
p219
(I32
I448
tp220
sS'17169'
p221
(I41
I468
tp222
sS'17158'
p223
(I24
I420
tp224
sS'17401'
p225
(I413
I1916
tp226
sS'17017'
p227
(I53
I519
tp228
sS'17403'
p229
(I340
I1482
tp230
sS'17402'
p231
(I426
I1981
tp232
sS'17128'
p233
(I208
I1008
tp234
sS'17280'
p235
(I329
I1455
tp236
sS'17120'
p237
(I92
I640
tp238
sS'17288'
p239
(I82
I604
tp240
sS'17238'
p241
(I355
I1545
tp242
sS'17239'
p243
(I403
I1821
tp244
sS'17236'
p245
(I383
I1665
tp246
sS'17237'
p247
(I342
I1499
tp248
sS'17234'
p249
(I357
I1551
tp250
sS'17235'
p251
(I331
I1459
tp252
sS'17232'
p253
(I243
I1132
tp254
sS'17233'
p255
(I217
I1034
tp256
sS'17230'
p257
(I277
I1262
tp258
sS'17231'
p259
(I261
I1197
tp260
sS'17302'
p261
(I296
I1330
tp262
sS'17303'
p263
(I260
I1191
tp264
sS'17300'
p265
(I129
I732
tp266
sS'17301'
p267
(I222
I1055
tp268
sS'17306'
p269
(I257
I1181
tp270
sS'17307'
p271
(I231
I1082
tp272
sS'17304'
p273
(I99
I648
tp274
sS'17305'
p275
(I157
I804
tp276
sS'17308'
p277
(I124
I714
tp278
sS'17309'
p279
(I154
I792
tp280
sS'17434'
p281
(I430
I2015
tp282
sS'17435'
p283
(I83
I605
tp284
sS'17436'
p285
(I185
I906
tp286
sS'17437'
p287
(I216
I1029
tp288
sS'17430'
p289
(I134
I738
tp290
sS'17431'
p291
(I438
I2091
tp292
sS'17432'
p293
(I424
I1979
tp294
sS'17433'
p295
(I432
I2025
tp296
sS'17438'
p297
(I255
I1174
tp298
sS'17283'
p299
(I211
I1017
tp300
sS'17282'
p301
(I150
I783
tp302
sS'17281'
p303
(I307
I1375
tp304
sS'17129'
p305
(I220
I1042
tp306
sS'17287'
p307
(I301
I1356
tp308
sS'17286'
p309
(I284
I1290
tp310
sS'17285'
p311
(I417
I1968
tp312
sS'17284'
p313
(I421
I1978
tp314
sS'17122'
p315
(I152
I785
tp316
sS'17123'
p317
(I226
I1065
tp318
sS'17289'
p319
(I103
I658
tp320
sS'17121'
p321
(I162
I834
tp322
sS'17126'
p323
(I72
I569
tp324
sS'17127'
p325
(I136
I745
tp326
sS'17124'
p327
(I201
I980
tp328
sS'17125'
p329
(I31
I445
tp330
sS'17056'
p331
(I288
I1305
tp332
sS'17057'
p333
(I227
I1066
tp334
sS'17054'
p335
(I354
I1544
tp336
sS'17055'
p337
(I166
I853
tp338
sS'17052'
p339
(I375
I1619
tp340
sS'17053'
p341
(I345
I1509
tp342
sS'17050'
p343
(I193
I941
tp344
sS'17051'
p345
(I363
I1585
tp346
sS'17058'
p347
(I234
I1090
tp348
sS'17059'
p349
(I91
I640
tp350
sS'17261'
p351
(I374
I1618
tp352
sS'17260'
p353
(I388
I1687
tp354
sS'17262'
p355
(I405
I1837
tp356
sS'17379'
p357
(I392
I1741
tp358
sS'17378'
p359
(I410
I1879
tp360
sS'17373'
p361
(I109
I668
tp362
sS'17372'
p363
(I156
I799
tp364
sS'17371'
p365
(I310
I1381
tp366
sS'17370'
p367
(I273
I1239
tp368
sS'17377'
p369
(I120
I694
tp370
sS'17376'
p371
(I155
I798
tp372
sS'17375'
p373
(I133
I736
tp374
sS'17374'
p375
(I210
I1011
tp376
sS'17269'
p377
(I28
I426
tp378
sS'17181'
p379
(I17
I380
tp380
sS'17311'
p381
(I250
I1156
tp382
sS'17310'
p383
(I275
I1249
tp384
sS'17272'
p385
(I292
I1314
tp386
sS'17273'
p387
(I323
I1438
tp388
sS'17270'
p389
(I429
I2011
tp390
sS'17271'
p391
(I319
I1422
tp392
sS'17276'
p393
(I62
I553
tp394
sS'17277'
p395
(I115
I682
tp396
sS'17274'
p397
(I262
I1199
tp398
sS'17275'
p399
(I195
I960
tp400
sS'17278'
p401
(I44
I480
tp402
sS'17279'
p403
(I49
I507
tp404
sS'17153'
p405
(I200
I975
tp406
sS'17152'
p407
(I144
I767
tp408
sS'17151'
p409
(I107
I667
tp410
sS'17150'
p411
(I52
I517
tp412
sS'17157'
p413
(I11
I336
tp414
sS'17156'
p415
(I23
I415
tp416
sS'17155'
p417
(I356
I1546
tp418
sS'17318'
p419
(I380
I1644
tp420
sS'17012'
p421
(I282
I1284
tp422
sS'17013'
p423
(I58
I540
tp424
sS'17010'
p425
(I96
I648
tp426
sS'17011'
p427
(I304
I1366
tp428
sS'17016'
p429
(I235
I1098
tp430
sS'17400'
p431
(I130
I733
tp432
sS'17014'
p433
(I140
I756
tp434
sS'17015'
p435
(I259
I1191
tp436
sS'17009'
p437
(I45
I482
tp438
sS'17008'
p439
(I253
I1163
tp440
sS'17081'
p441
(I387
I1686
tp442
sS'17080'
p443
(I393
I1743
tp444
sS'17083'
p445
(I274
I1248
tp446
sS'17082'
p447
(I236
I1101
tp448
sS'17085'
p449
(I377
I1642
tp450
sS'17084'
p451
(I418
I1970
tp452
sS'17087'
p453
(I283
I1290
tp454
sS'17086'
p455
(I239
I1112
tp456
sS'17089'
p457
(I229
I1074
tp458
sS'17088'
p459
(I180
I895
tp460
sS'17268'
p461
(I25
I424
tp462
sS'17004'
p463
(I188
I918
tp464
sS'17007'
p465
(I268
I1224
tp466
sS'17405'
p467
(I314
I1399
tp468
sS'17006'
p469
(I414
I1944
tp470
sS'17404'
p471
(I347
I1523
tp472
sS'17407'
p473
(I408
I1855
tp474
sS'17209'
p475
(I427
I1983
tp476
sS'17208'
p477
(I77
I584
tp478
sS'17203'
p479
(I171
I873
tp480
sS'17202'
p481
(I131
I734
tp482
sS'17201'
p483
(I312
I1391
tp484
sS'17200'
p485
(I213
I1020
tp486
sS'17207'
p487
(I87
I618
tp488
sS'17206'
p489
(I121
I706
tp490
sS'17205'
p491
(I54
I519
tp492
sS'17204'
p493
(I186
I911
tp494
sS'17423'
p495
(I112
I672
tp496
sS'17406'
p497
(I411
I1886
tp498
sS'17130'
p499
(I224
I1063
tp500
sS'17133'
p501
(I179
I893
tp502
sS'17420'
p503
(I290
I1305
tp504
sS'17427'
p505
(I75
I576
tp506
sS'17134'
p507
(I194
I949
tp508
sS'17425'
p509
(I10
I328
tp510
sS'17339'
p511
(I206
I996
tp512
sS'17338'
p513
(I198
I965
tp514
sS'17337'
p515
(I6
I299
tp516
sS'17336'
p517
(I33
I454
tp518
sS'17335'
p519
(I64
I553
tp520
sS'17136'
p521
(I238
I1106
tp522
sS'17333'
p523
(I68
I561
tp524
sS'17332'
p525
(I63
I553
tp526
sS'17331'
p527
(I272
I1236
tp528
sS'17330'
p529
(I295
I1325
tp530
sS'17117'
p531
(I214
I1025
tp532
sS'17116'
p533
(I151
I785
tp534
sS'17115'
p535
(I164
I837
tp536
sS'17114'
p537
(I165
I846
tp538
sS'17113'
p539
(I80
I594
tp540
sS'17112'
p541
(I294
I1323
tp542
sS'17111'
p543
(I256
I1177
tp544
sS'17110'
p545
(I230
I1081
tp546
sS'17119'
p547
(I51
I514
tp548
sS'17118'
p549
(I215
I1026
tp550
sS'17298'
p551
(I369
I1599
tp552
sS'17299'
p553
(I346
I1514
tp554
sS'17294'
p555
(I286
I1292
tp556
sS'17295'
p557
(I266
I1213
tp558
sS'17296'
p559
(I114
I680
tp560
sS'17297'
p561
(I146
I772
tp562
sS'17290'
p563
(I303
I1359
tp564
sS'17291'
p565
(I285
I1290
tp566
sS'17292'
p567
(I122
I708
tp568
sS'17293'
p569
(I167
I859
tp570
sS'17063'
p571
(I372
I1607
tp572
sS'17062'
p573
(I391
I1725
tp574
sS'17061'
p575
(I127
I725
tp576
sS'17060'
p577
(I168
I862
tp578
sS'17067'
p579
(I420
I1975
tp580
sS'17066'
p581
(I419
I1975
tp582
sS'17065'
p583
(I190
I928
tp584
sS'17064'
p585
(I85
I611
tp586
sS'17069'
p587
(I322
I1436
tp588
sS'17068'
p589
(I316
I1414
tp590
sS'17319'
p591
(I378
I1643
tp592
sS'17199'
p593
(I142
I761
tp594
sS'17213'
p595
(I325
I1451
tp596
sS'17399'
p597
(I263
I1200
tp598
sS'17398'
p599
(I279
I1274
tp600
sS'17391'
p601
(I86
I613
tp602
sS'17390'
p603
(I175
I887
tp604
sS'17393'
p605
(I353
I1543
tp606
sS'17392'
p607
(I233
I1089
tp608
sS'17395'
p609
(I172
I874
tp610
sS'17394'
p611
(I245
I1147
tp612
sS'17397'
p613
(I223
I1055
tp614
sS'17396'
p615
(I232
I1082
tp616
sS'17193'
p617
(I73
I572
tp618
sS'17219'
p619
(I128
I731
tp620
sS'17364'
p621
(I110
I671
tp622
sS'17365'
p623
(I306
I1370
tp624
sS'17366'
p625
(I267
I1222
tp626
sS'17367'
p627
(I111
I672
tp628
sS'17360'
p629
(I265
I1212
tp630
sS'17361'
p631
(I104
I662
tp632
sS'17249'
p633
(I321
I1435
tp634
sS'17363'
p635
(I59
I540
tp636
sS'17247'
p637
(I352
I1541
tp638
sS'17246'
p639
(I337
I1477
tp640
sS'17245'
p641
(I328
I1455
tp642
sS'17244'
p643
(I318
I1420
tp644
sS'17368'
p645
(I181
I896
tp646
sS'17369'
p647
(I148
I775
tp648
sS'17241'
p649
(I394
I1743
tp650
sS'17240'
p651
(I389
I1691
tp652
sS'17027'
p653
(I191
I930
tp654
sS'17026'
p655
(I113
I678
tp656
sS'17025'
p657
(I381
I1645
tp658
sS'17024'
p659
(I362
I1584
tp660
sS'17023'
p661
(I400
I1760
tp662
sS'17022'
p663
(I169
I866
tp664
sS'17021'
p665
(I79
I593
tp666
sS'17020'
p667
(I343
I1505
tp668
sS'17029'
p669
(I406
I1841
tp670
sS'17028'
p671
(I196
I962
tp672
sS'17148'
p673
(I170
I867
tp674
sS'17149'
p675
(I138
I750
tp676
sS'17418'
p677
(I93
I642
tp678
sS'17419'
p679
(I287
I1297
tp680
sS'17144'
p681
(I21
I402
tp682
sS'17145'
p683
(I22
I402
tp684
sS'17146'
p685
(I117
I685
tp686
sS'17147'
p687
(I305
I1370
tp688
sS'17140'
p689
(I38
I465
tp690
sS'17141'
p691
(I50
I513
tp692
sS'17410'
p693
(I71
I566
tp694
sS'17143'
p695
(I182
I898
tp696
sS'17092'
p697
(I423
I1979
tp698
sS'17093'
p699
(I428
I2001
tp700
sS'17090'
p701
(I47
I488
tp702
sS'17091'
p703
(I100
I652
tp704
sS'17096'
p705
(I242
I1125
tp706
sS'17097'
p707
(I161
I827
tp708
sS'17094'
p709
(I39
I467
tp710
sS'17095'
p711
(I126
I719
tp712
sS'17098'
p713
(I76
I577
tp714
sS'17099'
p715
(I14
I372
tp716
sS'17362'
p717
(I433
I2051
tp718
sS'17248'
p719
(I308
I1379
tp720
sS'17243'
p721
(I358
I1566
tp722
sS'17408'
p723
(I416
I1964
tp724
sS'17242'
p725
(I338
I1480
tp726
sS'17171'
p727
(I57
I536
tp728
sS'17142'
p729
(I330
I1457
tp730
sS'17170'
p731
(I42
I468
tp732
sS'17070'
p733
(I74
I576
tp734
sS'17178'
p735
(I94
I645
tp736
sS'17359'
p737
(I360
I1573
tp738
sS'17358'
p739
(I205
I992
tp740
sS'17355'
p741
(I437
I2064
tp742
sS'17354'
p743
(I431
I2019
tp744
sS'17357'
p745
(I248
I1154
tp746
sS'17356'
p747
(I435
I2060
tp748
sS'17351'
p749
(I135
I743
tp750
sS'17350'
p751
(I240
I1120
tp752
sS'17353'
p753
(I434
I2057
tp754
sS'17352'
p755
(I221
I1052
tp756
sS'17411'
p757
(I396
I1750
tp758
sS'17334'
p759
(I19
I391
tp760
sS'17328'
p761
(I228
I1068
tp762
sS'17329'
p763
(I297
I1332
tp764
sS'17320'
p765
(I203
I986
tp766
sS'17321'
p767
(I271
I1233
tp768
sS'17322'
p769
(I351
I1540
tp770
sS'17323'
p771
(I341
I1486
tp772
sS'17324'
p773
(I149
I782
tp774
sS'17325'
p775
(I209
I1008
tp776
sS'17326'
p777
(I385
I1681
tp778
sS'17327'
p779
(I384
I1680
tp780
sS'17100'
p781
(I66
I559
tp782
sS'17101'
p783
(I158
I816
tp784
sS'17102'
p785
(I40
I467
tp786
sS'17103'
p787
(I43
I470
tp788
sS'17104'
p789
(I247
I1153
tp790
sS'17105'
p791
(I302
I1359
tp792
sS'17106'
p793
(I270
I1233
tp794
sS'17107'
p795
(I36
I463
tp796
sS'17108'
p797
(I184
I906
tp798
sS'17109'
p799
(I163
I837
tp800
sS'17416'
p801
(I415
I1948
tp802
sS'17417'
p803
(I412
I1892
tp804
sS'17414'
p805
(I407
I1847
tp806
sS'17415'
p807
(I398
I1755
tp808
sS'17412'
p809
(I399
I1757
tp810
sS'17413'
p811
(I409
I1856
tp812
sS'17214'
p813
(I98
I648
tp814
sS'17215'
p815
(I106
I663
tp816
sS'17216'
p817
(I81
I598
tp818
sS'17217'
p819
(I102
I657
tp820
sS'17210'
p821
(I289
I1305
tp822
sS'17211'
p823
(I333
I1463
tp824
sS'17212'
p825
(I324
I1445
tp826
sS'17198'
p827
(I145
I769
tp828
sS'17197'
p829
(I132
I735
tp830
sS'17196'
p831
(I123
I709
tp832
sS'17195'
p833
(I125
I718
tp834
sS'17194'
p835
(I97
I648
tp836
sS'17218'
p837
(I119
I687
tp838
sS'17192'
p839
(I225
I1064
tp840
sS'17191'
p841
(I189
I919
tp842
sS'17190'
p843
(I382
I1651
tp844
sS'17175'
p845
(I183
I902
tp846
sS'17174'
p847
(I137
I747
tp848
sS'17177'
p849
(I60
I546
tp850
sS'17176'
p851
(I218
I1036
tp852
sS'17078'
p853
(I212
I1019
tp854
sS'17079'
p855
(I174
I884
tp856
sS'17173'
p857
(I2
I249
tp858
sS'17172'
p859
(I16
I377
tp860
sS'17074'
p861
(I116
I683
tp862
sS'17075'
p863
(I147
I774
tp864
sS'17076'
p865
(I425
I1981
tp866
sS'17077'
p867
(I386
I1685
tp868
sS'17179'
p869
(I105
I663
tp870
sS'17071'
p871
(I207
I997
tp872
sS'17072'
p873
(I359
I1567
tp874
sS'17073'
p875
(I298
I1337
tp876
s.