(dp0
S'18497'
p1
(I380
I1899
tp2
sS'18494'
p3
(I400
I1970
tp4
sS'18490'
p5
(I465
I2230
tp6
sS'18499'
p7
(I192
I1083
tp8
sS'18952'
p9
(I561
I2648
tp10
sS'18953'
p11
(I424
I2047
tp12
sS'18950'
p13
(I486
I2327
tp14
sS'18951'
p15
(I255
I1285
tp16
sS'18956'
p17
(I430
I2081
tp18
sS'18957'
p19
(I353
I1733
tp20
sS'18954'
p21
(I288
I1450
tp22
sS'18955'
p23
(I307
I1523
tp24
sS'18958'
p25
(I405
I1985
tp26
sS'18959'
p27
(I368
I1827
tp28
sS'18422'
p29
(I379
I1883
tp30
sS'18423'
p31
(I123
I770
tp32
sS'18420'
p33
(I348
I1708
tp34
sS'18421'
p35
(I437
I2122
tp36
sS'18426'
p37
(I313
I1551
tp38
sS'18427'
p39
(I257
I1293
tp40
sS'18424'
p41
(I56
I504
tp42
sS'18425'
p43
(I244
I1251
tp44
sS'18428'
p45
(I323
I1589
tp46
sS'18429'
p47
(I191
I1081
tp48
sS'28108'
p49
(I651
I3066
tp50
sS'28109'
p51
(I652
I3066
tp52
sS'28269'
p53
(I756
I3556
tp54
sS'28268'
p55
(I372
I1843
tp56
sS'18158'
p57
(I542
I2558
tp58
sS'18251'
p59
(I399
I1968
tp60
sS'18250'
p61
(I301
I1502
tp62
sS'18253'
p63
(I458
I2195
tp64
sS'18159'
p65
(I644
I3043
tp66
sS'18255'
p67
(I446
I2148
tp68
sS'18254'
p69
(I266
I1320
tp70
sS'18256'
p71
(I287
I1449
tp72
sS'18259'
p73
(I54
I502
tp74
sS'18258'
p75
(I18
I334
tp76
sS'18396'
p77
(I99
I676
tp78
sS'18170'
p79
(I356
I1744
tp80
sS'18171'
p81
(I346
I1704
tp82
sS'18172'
p83
(I393
I1946
tp84
sS'18173'
p85
(I449
I2158
tp86
sS'18174'
p87
(I718
I3333
tp88
sS'18175'
p89
(I223
I1186
tp90
sS'18176'
p91
(I476
I2280
tp92
sS'18177'
p93
(I416
I2022
tp94
sS'18178'
p95
(I441
I2133
tp96
sS'18179'
p97
(I254
I1281
tp98
sS'28262'
p99
(I704
I3285
tp100
sS'18079'
p101
(I285
I1417
tp102
sS'18078'
p103
(I69
I557
tp104
sS'18374'
p105
(I3
I136
tp106
sS'18375'
p107
(I1
I85
tp108
sS'18372'
p109
(I135
I836
tp110
sS'18373'
p111
(I120
I749
tp112
sS'18370'
p113
(I131
I826
tp114
sS'18371'
p115
(I104
I693
tp116
sS'18071'
p117
(I21
I357
tp118
sS'18070'
p119
(I114
I740
tp120
sS'18073'
p121
(I28
I380
tp122
sS'18075'
p123
(I67
I551
tp124
sS'18150'
p125
(I445
I2140
tp126
sS'18077'
p127
(I35
I400
tp128
sS'18076'
p129
(I147
I884
tp130
sS'28032'
p131
(I727
I3357
tp132
sS'28033'
p133
(I734
I3425
tp134
sS'28030'
p135
(I668
I3150
tp136
sS'28031'
p137
(I595
I2816
tp138
sS'28036'
p139
(I633
I2992
tp140
sS'28037'
p141
(I646
I3053
tp142
sS'28034'
p143
(I688
I3227
tp144
sS'28035'
p145
(I772
I3668
tp146
sS'28038'
p147
(I657
I3088
tp148
sS'28039'
p149
(I493
I2366
tp150
sS'18084'
p151
(I292
I1466
tp152
sS'18085'
p153
(I95
I661
tp154
sS'18086'
p155
(I117
I743
tp156
sS'18087'
p157
(I425
I2049
tp158
sS'18080'
p159
(I224
I1194
tp160
sS'18081'
p161
(I300
I1502
tp162
sS'18082'
p163
(I77
I599
tp164
sS'18088'
p165
(I204
I1145
tp166
sS'18105'
p167
(I189
I1069
tp168
sS'18104'
p169
(I250
I1273
tp170
sS'18107'
p171
(I600
I2841
tp172
sS'18106'
p173
(I154
I919
tp174
sS'18101'
p175
(I232
I1215
tp176
sS'18103'
p177
(I186
I1058
tp178
sS'18102'
p179
(I383
I1903
tp180
sS'18108'
p181
(I280
I1396
tp182
sS'28051'
p183
(I708
I3297
tp184
sS'28241'
p185
(I540
I2553
tp186
sS'28240'
p187
(I604
I2846
tp188
sS'28243'
p189
(I618
I2917
tp190
sS'28242'
p191
(I587
I2749
tp192
sS'28245'
p193
(I572
I2702
tp194
sS'28244'
p195
(I565
I2668
tp196
sS'28247'
p197
(I601
I2843
tp198
sS'18342'
p199
(I108
I709
tp200
sS'28249'
p201
(I502
I2397
tp202
sS'28248'
p203
(I578
I2719
tp204
sS'28087'
p205
(I788
I3756
tp206
sS'28086'
p207
(I794
I3819
tp208
sS'28085'
p209
(I725
I3351
tp210
sS'28084'
p211
(I680
I3195
tp212
sS'28083'
p213
(I785
I3737
tp214
sS'28082'
p215
(I739
I3461
tp216
sS'28081'
p217
(I778
I3699
tp218
sS'28080'
p219
(I783
I3717
tp220
sS'28062'
p221
(I671
I3169
tp222
sS'28089'
p223
(I770
I3638
tp224
sS'28088'
p225
(I760
I3575
tp226
sS'18459'
p227
(I276
I1361
tp228
sS'18453'
p229
(I310
I1541
tp230
sS'28153'
p231
(I724
I3347
tp232
sS'18451'
p233
(I198
I1124
tp234
sS'18450'
p235
(I128
I776
tp236
sS'18457'
p237
(I215
I1163
tp238
sS'18349'
p239
(I79
I602
tp240
sS'28106'
p241
(I675
I3183
tp242
sS'18061'
p243
(I121
I762
tp244
sS'28107'
p245
(I628
I2973
tp246
sS'28104'
p247
(I480
I2311
tp248
sS'28148'
p249
(I562
I2649
tp250
sS'28105'
p251
(I469
I2247
tp252
sS'28142'
p253
(I658
I3093
tp254
sS'28143'
p255
(I532
I2532
tp256
sS'28140'
p257
(I623
I2943
tp258
sS'28141'
p259
(I610
I2876
tp260
sS'28146'
p261
(I592
I2788
tp262
sS'28147'
p263
(I570
I2697
tp264
sS'28144'
p265
(I545
I2569
tp266
sS'28145'
p267
(I614
I2899
tp268
sS'28100'
p269
(I753
I3532
tp270
sS'18208'
p271
(I473
I2259
tp272
sS'18209'
p273
(I686
I3225
tp274
sS'18206'
p275
(I504
I2416
tp276
sS'18204'
p277
(I615
I2902
tp278
sS'18205'
p279
(I483
I2319
tp280
sS'18202'
p281
(I317
I1569
tp282
sS'18200'
p283
(I387
I1913
tp284
sS'18201'
p285
(I305
I1514
tp286
sS'28008'
p287
(I351
I1713
tp288
sS'18513'
p289
(I427
I2055
tp290
sS'18927'
p291
(I552
I2608
tp292
sS'28219'
p293
(I653
I3066
tp294
sS'18338'
p295
(I122
I762
tp296
sS'18339'
p297
(I230
I1213
tp298
sS'28115'
p299
(I773
I3669
tp300
sS'18332'
p301
(I459
I2196
tp302
sS'18333'
p303
(I440
I2129
tp304
sS'18336'
p305
(I398
I1960
tp306
sS'18337'
p307
(I302
I1504
tp308
sS'18334'
p309
(I385
I1911
tp310
sS'18335'
p311
(I491
I2344
tp312
sS'18637'
p313
(I369
I1835
tp314
sS'18635'
p315
(I516
I2466
tp316
sS'18634'
p317
(I426
I2049
tp318
sS'18633'
p319
(I411
I1991
tp320
sS'18632'
p321
(I553
I2609
tp322
sS'18631'
p323
(I237
I1233
tp324
sS'18630'
p325
(I697
I3262
tp326
sS'18639'
p327
(I115
I740
tp328
sS'18148'
p329
(I176
I999
tp330
sS'18024'
p331
(I106
I701
tp332
sS'18025'
p333
(I62
I524
tp334
sS'18022'
p335
(I455
I2173
tp336
sS'18023'
p337
(I345
I1704
tp338
sS'18021'
p339
(I51
I499
tp340
sS'18141'
p341
(I384
I1906
tp342
sS'18140'
p343
(I526
I2501
tp344
sS'18142'
p345
(I637
I3013
tp346
sS'18144'
p347
(I531
I2531
tp348
sS'18028'
p349
(I103
I689
tp350
sS'18146'
p351
(I210
I1152
tp352
sS'28116'
p353
(I792
I3793
tp354
sS'28049'
p355
(I701
I3281
tp356
sS'28048'
p357
(I557
I2633
tp358
sS'28043'
p359
(I606
I2853
tp360
sS'28041'
p361
(I361
I1801
tp362
sS'28040'
p363
(I470
I2252
tp364
sS'28047'
p365
(I636
I3009
tp366
sS'28046'
p367
(I607
I2854
tp368
sS'28045'
p369
(I588
I2767
tp370
sS'28044'
p371
(I791
I3792
tp372
sS'28188'
p373
(I389
I1918
tp374
sS'28189'
p375
(I408
I1990
tp376
sS'28186'
p377
(I419
I2029
tp378
sS'28187'
p379
(I354
I1733
tp380
sS'28184'
p381
(I619
I2919
tp382
sS'28185'
p383
(I632
I2985
tp384
sS'28182'
p385
(I471
I2252
tp386
sS'28183'
p387
(I598
I2833
tp388
sS'28180'
p389
(I511
I2440
tp390
sS'28181'
p391
(I468
I2244
tp392
sS'28218'
p393
(I685
I3224
tp394
sS'18214'
p395
(I589
I2781
tp396
sS'28216'
p397
(I740
I3480
tp398
sS'28217'
p399
(I749
I3500
tp400
sS'28214'
p401
(I726
I3356
tp402
sS'28215'
p403
(I616
I2905
tp404
sS'28212'
p405
(I624
I2943
tp406
sS'28213'
p407
(I742
I3486
tp408
sS'28210'
p409
(I513
I2452
tp410
sS'28211'
p411
(I642
I3037
tp412
sS'18481'
p413
(I414
I2003
tp414
sS'18482'
p415
(I508
I2429
tp416
sS'18486'
p417
(I407
I1990
tp418
sS'18487'
p419
(I475
I2265
tp420
sS'18488'
p421
(I460
I2196
tp422
sS'18489'
p423
(I457
I2182
tp424
sS'18567'
p425
(I421
I2037
tp426
sS'18566'
p427
(I391
I1929
tp428
sS'18969'
p429
(I304
I1513
tp430
sS'18968'
p431
(I68
I555
tp432
sS'18967'
p433
(I89
I624
tp434
sS'18966'
p435
(I262
I1312
tp436
sS'18965'
p437
(I325
I1607
tp438
sS'18964'
p439
(I492
I2362
tp440
sS'18963'
p441
(I275
I1357
tp442
sS'18962'
p443
(I617
I2913
tp444
sS'18961'
p445
(I713
I3312
tp446
sS'18960'
p447
(I496
I2380
tp448
sS'28133'
p449
(I659
I3095
tp450
sS'28132'
p451
(I789
I3766
tp452
sS'28131'
p453
(I705
I3291
tp454
sS'28130'
p455
(I732
I3421
tp456
sS'28137'
p457
(I559
I2645
tp458
sS'28136'
p459
(I563
I2665
tp460
sS'18419'
p461
(I359
I1784
tp462
sS'18418'
p463
(I284
I1413
tp464
sS'18417'
p465
(I265
I1316
tp466
sS'18416'
p467
(I34
I398
tp468
sS'28139'
p469
(I590
I2781
tp470
sS'18414'
p471
(I70
I563
tp472
sS'18413'
p473
(I64
I534
tp474
sS'18412'
p475
(I371
I1840
tp476
sS'18985'
p477
(I597
I2826
tp478
sS'18984'
p479
(I702
I3285
tp480
sS'18987'
p481
(I626
I2960
tp482
sS'18986'
p483
(I719
I3336
tp484
sS'18981'
p485
(I343
I1701
tp486
sS'18980'
p487
(I133
I831
tp488
sS'18983'
p489
(I698
I3262
tp490
sS'18982'
p491
(I251
I1274
tp492
sS'18989'
p493
(I534
I2538
tp494
sS'18988'
p495
(I518
I2476
tp496
sS'18399'
p497
(I630
I2983
tp498
sS'18242'
p499
(I233
I1218
tp500
sS'18243'
p501
(I439
I2128
tp502
sS'18240'
p503
(I84
I612
tp504
sS'18241'
p505
(I336
I1652
tp506
sS'18246'
p507
(I375
I1869
tp508
sS'18247'
p509
(I347
I1707
tp510
sS'18244'
p511
(I332
I1627
tp512
sS'18245'
p513
(I259
I1310
tp514
sS'18248'
p515
(I489
I2334
tp516
sS'18249'
p517
(I472
I2258
tp518
sS'18189'
p519
(I316
I1568
tp520
sS'18188'
p521
(I358
I1766
tp522
sS'28253'
p523
(I521
I2481
tp524
sS'18185'
p525
(I613
I2891
tp526
sS'18184'
p527
(I311
I1542
tp528
sS'18187'
p529
(I283
I1410
tp530
sS'18186'
p531
(I318
I1571
tp532
sS'18180'
p533
(I334
I1638
tp534
sS'18183'
p535
(I319
I1574
tp536
sS'18182'
p537
(I268
I1324
tp538
sS'18390'
p539
(I65
I547
tp540
sS'18068'
p541
(I48
I478
tp542
sS'18069'
p543
(I140
I861
tp544
sS'18347'
p545
(I75
I586
tp546
sS'18346'
p547
(I88
I624
tp548
sS'18345'
p549
(I14
I294
tp550
sS'18344'
p551
(I146
I881
tp552
sS'18060'
p553
(I83
I610
tp554
sS'18348'
p555
(I111
I718
tp556
sS'18066'
p557
(I82
I607
tp558
sS'18064'
p559
(I138
I853
tp560
sS'18065'
p561
(I156
I925
tp562
sS'28009'
p563
(I231
I1214
tp564
sS'18027'
p565
(I57
I512
tp566
sS'28007'
p567
(I381
I1899
tp568
sS'28006'
p569
(I229
I1210
tp570
sS'28005'
p571
(I216
I1166
tp572
sS'28004'
p573
(I213
I1159
tp574
sS'28003'
p575
(I181
I1041
tp576
sS'28002'
p577
(I277
I1367
tp578
sS'28001'
p579
(I270
I1329
tp580
sS'28000'
p581
(I341
I1679
tp582
sS'18116'
p583
(I195
I1110
tp584
sS'18117'
p585
(I535
I2541
tp586
sS'18190'
p587
(I488
I2329
tp588
sS'18112'
p589
(I547
I2585
tp590
sS'18110'
p591
(I225
I1199
tp592
sS'18119'
p593
(I173
I984
tp594
sS'28252'
p595
(I461
I2206
tp596
sS'18501'
p597
(I344
I1702
tp598
sS'28250'
p599
(I579
I2724
tp600
sS'28251'
p601
(I447
I2151
tp602
sS'28256'
p603
(I576
I2718
tp604
sS'28257'
p605
(I583
I2731
tp606
sS'28254'
p607
(I584
I2739
tp608
sS'28255'
p609
(I479
I2290
tp610
sS'28258'
p611
(I703
I3285
tp612
sS'28259'
p613
(I202
I1137
tp614
sS'28091'
p615
(I767
I3614
tp616
sS'28092'
p617
(I781
I3711
tp618
sS'28093'
p619
(I777
I3689
tp620
sS'28094'
p621
(I796
I3823
tp622
sS'18147'
p623
(I355
I1735
tp624
sS'28096'
p625
(I715
I3325
tp626
sS'28097'
p627
(I797
I3836
tp628
sS'28098'
p629
(I780
I3704
tp630
sS'28099'
p631
(I793
I3795
tp632
sS'18029'
p633
(I158
I939
tp634
sS'28095'
p635
(I752
I3522
tp636
sS'28177'
p637
(I454
I2172
tp638
sS'18376'
p639
(I296
I1477
tp640
sS'28175'
p641
(I467
I2237
tp642
sS'28174'
p643
(I452
I2168
tp644
sS'28173'
p645
(I462
I2213
tp646
sS'28172'
p647
(I453
I2172
tp648
sS'28171'
p649
(I451
I2165
tp650
sS'18377'
p651
(I326
I1609
tp652
sS'28113'
p653
(I728
I3379
tp654
sS'28179'
p655
(I433
I2096
tp656
sS'28178'
p657
(I463
I2218
tp658
sS'18239'
p659
(I374
I1858
tp660
sS'18233'
p661
(I373
I1856
tp662
sS'18232'
p663
(I501
I2393
tp664
sS'18231'
p665
(I509
I2439
tp666
sS'18230'
p667
(I464
I2221
tp668
sS'18237'
p669
(I245
I1255
tp670
sS'18236'
p671
(I74
I584
tp672
sS'18235'
p673
(I357
I1754
tp674
sS'18234'
p675
(I362
I1807
tp676
sS'18934'
p677
(I207
I1148
tp678
sS'18935'
p679
(I217
I1171
tp680
sS'18936'
p681
(I143
I872
tp682
sS'18930'
p683
(I370
I1838
tp684
sS'18931'
p685
(I320
I1576
tp686
sS'18932'
p687
(I142
I869
tp688
sS'18933'
p689
(I180
I1038
tp690
sS'18938'
p691
(I364
I1818
tp692
sS'18939'
p693
(I415
I2018
tp694
sS'18444'
p695
(I148
I888
tp696
sS'18445'
p697
(I150
I894
tp698
sS'18446'
p699
(I331
I1623
tp700
sS'18447'
p701
(I267
I1321
tp702
sS'18378'
p703
(I406
I1986
tp704
sS'18529'
p705
(I621
I2927
tp706
sS'18443'
p707
(I98
I674
tp708
sS'18527'
p709
(I539
I2553
tp710
sS'28111'
p711
(I747
I3496
tp712
sS'18524'
p713
(I691
I3235
tp714
sS'18448'
p715
(I185
I1052
tp716
sS'18449'
p717
(I20
I356
tp718
sS'28110'
p719
(I582
I2731
tp720
sS'18306'
p721
(I63
I533
tp722
sS'18305'
p723
(I118
I744
tp724
sS'18304'
p725
(I174
I984
tp726
sS'18651'
p727
(I340
I1668
tp728
sS'18302'
p729
(I85
I613
tp730
sS'18301'
p731
(I170
I978
tp732
sS'18300'
p733
(I32
I395
tp734
sS'28112'
p735
(I667
I3146
tp736
sS'18309'
p737
(I76
I598
tp738
sS'18308'
p739
(I157
I932
tp740
sS'28118'
p741
(I757
I3565
tp742
sS'18621'
p743
(I664
I3139
tp744
sS'28264'
p745
(I638
I3018
tp746
sS'18629'
p747
(I269
I1327
tp748
sS'18537'
p749
(I596
I2823
tp750
sS'28102'
p751
(I690
I3233
tp752
sS'28123'
p753
(I795
I3820
tp754
sS'18013'
p755
(I248
I1259
tp756
sS'18012'
p757
(I252
I1276
tp758
sS'18011'
p759
(I196
I1121
tp760
sS'18010'
p761
(I435
I2108
tp762
sS'18017'
p763
(I126
I775
tp764
sS'18016'
p765
(I212
I1153
tp766
sS'18015'
p767
(I423
I2043
tp768
sS'18014'
p769
(I327
I1610
tp770
sS'18152'
p771
(I295
I1477
tp772
sS'18642'
p773
(I660
I3099
tp774
sS'18019'
p775
(I153
I915
tp776
sS'18151'
p777
(I422
I2038
tp778
sS'18156'
p779
(I165
I964
tp780
sS'18157'
p781
(I574
I2709
tp782
sS'18154'
p783
(I312
I1544
tp784
sS'18155'
p785
(I514
I2457
tp786
sS'28054'
p787
(I721
I3341
tp788
sS'28055'
p789
(I768
I3623
tp790
sS'28056'
p791
(I735
I3426
tp792
sS'28057'
p793
(I709
I3299
tp794
sS'28050'
p795
(I684
I3224
tp796
sS'18640'
p797
(I236
I1232
tp798
sS'28052'
p799
(I761
I3584
tp800
sS'28053'
p801
(I759
I3572
tp802
sS'18641'
p803
(I240
I1240
tp804
sS'28058'
p805
(I729
I3380
tp806
sS'28059'
p807
(I710
I3305
tp808
sS'18327'
p809
(I42
I456
tp810
sS'18092'
p811
(I297
I1483
tp812
sS'18289'
p813
(I410
I1991
tp814
sS'28176'
p815
(I448
I2157
tp816
sS'28124'
p817
(I695
I3241
tp818
sS'28125'
p819
(I693
I3236
tp820
sS'28126'
p821
(I694
I3240
tp822
sS'28127'
p823
(I689
I3228
tp824
sS'28170'
p825
(I520
I2481
tp826
sS'28229'
p827
(I497
I2380
tp828
sS'28228'
p829
(I481
I2312
tp830
sS'28122'
p831
(I696
I3242
tp832
sS'28223'
p833
(I569
I2681
tp834
sS'28222'
p835
(I549
I2587
tp836
sS'28221'
p837
(I529
I2525
tp838
sS'28220'
p839
(I382
I1900
tp840
sS'28227'
p841
(I477
I2284
tp842
sS'28226'
p843
(I536
I2543
tp844
sS'28225'
p845
(I528
I2509
tp846
sS'28224'
p847
(I530
I2530
tp848
sS'18619'
p849
(I648
I3057
tp850
sS'18479'
p851
(I512
I2447
tp852
sS'18478'
p853
(I392
I1943
tp854
sS'18477'
p855
(I386
I1911
tp856
sS'18476'
p857
(I394
I1950
tp858
sS'28308'
p859
(I611
I2876
tp860
sS'18978'
p861
(I136
I838
tp862
sS'18979'
p863
(I249
I1262
tp864
sS'18970'
p865
(I175
I985
tp866
sS'18971'
p867
(I53
I501
tp868
sS'18972'
p869
(I337
I1663
tp870
sS'18973'
p871
(I90
I627
tp872
sS'18974'
p873
(I367
I1825
tp874
sS'18975'
p875
(I338
I1663
tp876
sS'18976'
p877
(I443
I2137
tp878
sS'18977'
p879
(I418
I2027
tp880
sS'18408'
p881
(I49
I482
tp882
sS'28128'
p883
(I673
I3179
tp884
sS'28129'
p885
(I634
I2995
tp886
sS'18400'
p887
(I145
I875
tp888
sS'18401'
p889
(I510
I2440
tp890
sS'18402'
p891
(I321
I1577
tp892
sS'18403'
p893
(I182
I1045
tp894
sS'28120'
p895
(I737
I3438
tp896
sS'28121'
p897
(I679
I3192
tp898
sS'18406'
p899
(I36
I401
tp900
sS'18407'
p901
(I47
I477
tp902
sS'18996'
p903
(I282
I1406
tp904
sS'18997'
p905
(I258
I1305
tp906
sS'18994'
p907
(I474
I2263
tp908
sS'18995'
p909
(I294
I1476
tp910
sS'18992'
p911
(I401
I1974
tp912
sS'18993'
p913
(I487
I2327
tp914
sS'18990'
p915
(I612
I2881
tp916
sS'18991'
p917
(I786
I3741
tp918
sS'18610'
p919
(I682
I3210
tp920
sS'18612'
p921
(I641
I3028
tp922
sS'18615'
p923
(I533
I2538
tp924
sS'18614'
p925
(I573
I2706
tp926
sS'18998'
p927
(I228
I1203
tp928
sS'18616'
p929
(I235
I1224
tp930
sS'28117'
p931
(I593
I2791
tp932
sS'18617'
p933
(I495
I2378
tp934
sS'18999'
p935
(I329
I1610
tp936
sS'18539'
p937
(I654
I3070
tp938
sS'18279'
p939
(I190
I1081
tp940
sS'18278'
p941
(I92
I637
tp942
sS'18277'
p943
(I163
I960
tp944
sS'18275'
p945
(I303
I1506
tp946
sS'18274'
p947
(I324
I1600
tp948
sS'18273'
p949
(I100
I677
tp950
sS'18272'
p951
(I272
I1345
tp952
sS'18271'
p953
(I200
I1126
tp954
sS'18270'
p955
(I168
I974
tp956
sS'18057'
p957
(I23
I367
tp958
sS'18055'
p959
(I44
I467
tp960
sS'18053'
p961
(I17
I333
tp962
sS'18051'
p963
(I16
I319
tp964
sS'18050'
p965
(I52
I500
tp966
sS'18196'
p967
(I260
I1311
tp968
sS'18192'
p969
(I647
I3056
tp970
sS'18193'
p971
(I388
I1914
tp972
sS'18059'
p973
(I4
I160
tp974
sS'18191'
p975
(I499
I2392
tp976
sS'18295'
p977
(I183
I1046
tp978
sS'18294'
p979
(I46
I468
tp980
sS'18297'
p981
(I127
I775
tp982
sS'18358'
p983
(I290
I1459
tp984
sS'18290'
p985
(I40
I450
tp986
sS'18293'
p987
(I60
I519
tp988
sS'18292'
p989
(I45
I467
tp990
sS'18354'
p991
(I162
I952
tp992
sS'18355'
p993
(I201
I1129
tp994
sS'18356'
p995
(I291
I1465
tp996
sS'18357'
p997
(I264
I1315
tp998
sS'18299'
p999
(I159
I946
tp1000
sS'18351'
p1001
(I66
I548
tp1002
sS'18352'
p1003
(I27
I375
tp1004
sS'18353'
p1005
(I72
I576
tp1006
sS'28018'
p1007
(I220
I1180
tp1008
sS'28019'
p1009
(I246
I1256
tp1010
sS'28010'
p1011
(I214
I1162
tp1012
sS'28011'
p1013
(I349
I1708
tp1014
sS'28012'
p1015
(I193
I1097
tp1016
sS'28013'
p1017
(I274
I1356
tp1018
sS'28014'
p1019
(I322
I1587
tp1020
sS'28015'
p1021
(I222
I1183
tp1022
sS'28016'
p1023
(I199
I1124
tp1024
sS'28017'
p1025
(I378
I1877
tp1026
sS'18538'
p1027
(I575
I2714
tp1028
sS'18223'
p1029
(I409
I1991
tp1030
sS'18121'
p1031
(I278
I1387
tp1032
sS'18120'
p1033
(I404
I1980
tp1034
sS'18127'
p1035
(I434
I2098
tp1036
sS'18126'
p1037
(I194
I1105
tp1038
sS'18128'
p1039
(I541
I2556
tp1040
sS'28304'
p1041
(I113
I730
tp1042
sS'28305'
p1043
(I149
I889
tp1044
sS'28306'
p1045
(I152
I910
tp1046
sS'28307'
p1047
(I164
I962
tp1048
sS'28300'
p1049
(I450
I2162
tp1050
sS'28301'
p1051
(I396
I1958
tp1052
sS'28302'
p1053
(I339
I1665
tp1054
sS'28303'
p1055
(I299
I1501
tp1056
sS'28267'
p1057
(I714
I3317
tp1058
sS'18228'
p1059
(I360
I1790
tp1060
sS'28265'
p1061
(I577
I2718
tp1062
sS'28246'
p1063
(I522
I2485
tp1064
sS'28263'
p1065
(I558
I2636
tp1066
sS'28309'
p1067
(I645
I3044
tp1068
sS'28261'
p1069
(I755
I3548
tp1070
sS'28260'
p1071
(I314
I1560
tp1072
sS'28069'
p1073
(I564
I2666
tp1074
sS'28068'
p1075
(I625
I2952
tp1076
sS'28065'
p1077
(I669
I3162
tp1078
sS'28064'
p1079
(I484
I2321
tp1080
sS'28067'
p1081
(I599
I2834
tp1082
sS'28066'
p1083
(I656
I3082
tp1084
sS'28061'
p1085
(I754
I3534
tp1086
sS'28060'
p1087
(I743
I3488
tp1088
sS'28063'
p1089
(I649
I3061
tp1090
sS'18030'
p1091
(I134
I832
tp1092
sS'28285'
p1093
(I169
I975
tp1094
sS'28284'
p1095
(I432
I2087
tp1096
sS'28287'
p1097
(I188
I1066
tp1098
sS'28286'
p1099
(I289
I1451
tp1100
sS'28281'
p1101
(I436
I2121
tp1102
sS'28280'
p1103
(I544
I2565
tp1104
sS'28283'
p1105
(I412
I2000
tp1106
sS'28282'
p1107
(I442
I2134
tp1108
sS'28289'
p1109
(I643
I3038
tp1110
sS'28288'
p1111
(I261
I1311
tp1112
sS'28160'
p1113
(I527
I2502
tp1114
sS'28161'
p1115
(I523
I2487
tp1116
sS'28162'
p1117
(I333
I1627
tp1118
sS'28163'
p1119
(I444
I2138
tp1120
sS'28164'
p1121
(I490
I2334
tp1122
sS'28165'
p1123
(I507
I2427
tp1124
sS'28167'
p1125
(I478
I2288
tp1126
sS'28168'
p1127
(I428
I2076
tp1128
sS'28169'
p1129
(I555
I2631
tp1130
sS'28266'
p1131
(I731
I3384
tp1132
sS'18131'
p1133
(I227
I1203
tp1134
sS'28073'
p1135
(I765
I3601
tp1136
sS'18562'
p1137
(I603
I2845
tp1138
sS'18544'
p1139
(I581
I2728
tp1140
sS'18547'
p1141
(I591
I2787
tp1142
sS'18541'
p1143
(I608
I2862
tp1144
sS'18540'
p1145
(I711
I3307
tp1146
sS'18940'
p1147
(I219
I1178
tp1148
sS'18943'
p1149
(I524
I2489
tp1150
sS'18942'
p1151
(I560
I2646
tp1152
sS'18945'
p1153
(I328
I1610
tp1154
sS'18944'
p1155
(I187
I1060
tp1156
sS'18947'
p1157
(I413
I2001
tp1158
sS'18946'
p1159
(I506
I2419
tp1160
sS'18949'
p1161
(I293
I1473
tp1162
sS'18948'
p1163
(I390
I1922
tp1164
sS'18431'
p1165
(I209
I1151
tp1166
sS'18430'
p1167
(I242
I1247
tp1168
sS'18433'
p1169
(I206
I1147
tp1170
sS'18432'
p1171
(I50
I484
tp1172
sS'18435'
p1173
(I205
I1146
tp1174
sS'18434'
p1175
(I377
I1875
tp1176
sS'18437'
p1177
(I22
I359
tp1178
sS'18436'
p1179
(I238
I1234
tp1180
sS'18439'
p1181
(I37
I402
tp1182
sS'18438'
p1183
(I31
I393
tp1184
sS'18532'
p1185
(I733
I3423
tp1186
sS'18533'
p1187
(I650
I3062
tp1188
sS'28119'
p1189
(I775
I3676
tp1190
sS'18535'
p1191
(I655
I3073
tp1192
sS'18360'
p1193
(I395
I1953
tp1194
sS'18310'
p1195
(I417
I2027
tp1196
sS'18312'
p1197
(I234
I1219
tp1198
sS'18313'
p1199
(I271
I1344
tp1200
sS'18314'
p1201
(I208
I1150
tp1202
sS'18316'
p1203
(I155
I922
tp1204
sS'18317'
p1205
(I101
I677
tp1206
sS'18319'
p1207
(I239
I1240
tp1208
sS'18090'
p1209
(I253
I1279
tp1210
sS'18097'
p1211
(I556
I2632
tp1212
sS'18096'
p1213
(I546
I2579
tp1214
sS'18095'
p1215
(I279
I1394
tp1216
sS'18198'
p1217
(I500
I2392
tp1218
sS'18199'
p1219
(I420
I2034
tp1220
sS'18368'
p1221
(I71
I575
tp1222
sS'18224'
p1223
(I141
I864
tp1224
sS'18225'
p1225
(I431
I2085
tp1226
sS'18226'
p1227
(I211
I1152
tp1228
sS'18227'
p1229
(I308
I1525
tp1230
sS'18220'
p1231
(I171
I981
tp1232
sS'18221'
p1233
(I203
I1143
tp1234
sS'18222'
p1235
(I178
I1025
tp1236
sS'18388'
p1237
(I256
I1289
tp1238
sS'18386'
p1239
(I218
I1174
tp1240
sS'18385'
p1241
(I105
I698
tp1242
sS'18384'
p1243
(I8
I229
tp1244
sS'18383'
p1245
(I5
I192
tp1246
sS'18229'
p1247
(I640
I3025
tp1248
sS'18167'
p1249
(I661
I3101
tp1250
sS'18166'
p1251
(I627
I2965
tp1252
sS'18165'
p1253
(I366
I1821
tp1254
sS'18164'
p1255
(I365
I1819
tp1256
sS'18163'
p1257
(I620
I2925
tp1258
sS'18161'
p1259
(I397
I1960
tp1260
sS'18160'
p1261
(I585
I2746
tp1262
sS'18528'
p1263
(I629
I2978
tp1264
sS'18168'
p1265
(I712
I3309
tp1266
sS'18365'
p1267
(I139
I857
tp1268
sS'18364'
p1269
(I177
I1017
tp1270
sS'18367'
p1271
(I116
I742
tp1272
sS'18361'
p1273
(I309
I1533
tp1274
sS'18009'
p1275
(I243
I1251
tp1276
sS'18363'
p1277
(I25
I372
tp1278
sS'18362'
p1279
(I363
I1813
tp1280
sS'18005'
p1281
(I38
I417
tp1282
sS'18006'
p1283
(I73
I578
tp1284
sS'18007'
p1285
(I43
I466
tp1286
sS'18369'
p1287
(I132
I831
tp1288
sS'18001'
p1289
(I130
I813
tp1290
sS'18002'
p1291
(I110
I715
tp1292
sS'18003'
p1293
(I41
I452
tp1294
sS'28021'
p1295
(I167
I965
tp1296
sS'28020'
p1297
(I352
I1718
tp1298
sS'28023'
p1299
(I281
I1400
tp1300
sS'28022'
p1301
(I286
I1431
tp1302
sS'28025'
p1303
(I298
I1492
tp1304
sS'28024'
p1305
(I241
I1242
tp1306
sS'28027'
p1307
(I750
I3503
tp1308
sS'28026'
p1309
(I263
I1312
tp1310
sS'28029'
p1311
(I699
I3262
tp1312
sS'28028'
p1313
(I730
I3383
tp1314
sS'18522'
p1315
(I744
I3489
tp1316
sS'18291'
p1317
(I221
I1183
tp1318
sS'28114'
p1319
(I787
I3755
tp1320
sS'18303'
p1321
(I160
I946
tp1322
sS'28234'
p1323
(I567
I2675
tp1324
sS'28235'
p1325
(I537
I2549
tp1326
sS'28236'
p1327
(I543
I2565
tp1328
sS'28237'
p1329
(I505
I2418
tp1330
sS'28230'
p1331
(I485
I2321
tp1332
sS'28231'
p1333
(I429
I2080
tp1334
sS'28232'
p1335
(I763
I3589
tp1336
sS'28233'
p1337
(I687
I3225
tp1338
sS'18350'
p1339
(I166
I965
tp1340
sS'28238'
p1341
(I586
I2746
tp1342
sS'28239'
p1343
(I594
I2793
tp1344
sS'28135'
p1345
(I631
I2984
tp1346
sS'28134'
p1347
(I602
I2844
tp1348
sS'28138'
p1349
(I662
I3105
tp1350
sS'28159'
p1351
(I566
I2674
tp1352
sS'28158'
p1353
(I554
I2613
tp1354
sS'28151'
p1355
(I745
I3494
tp1356
sS'28150'
p1357
(I665
I3139
tp1358
sS'18114'
p1359
(I635
I3004
tp1360
sS'28152'
p1361
(I706
I3291
tp1362
sS'28155'
p1363
(I402
I1975
tp1364
sS'28154'
p1365
(I700
I3278
tp1366
sS'28157'
p1367
(I670
I3165
tp1368
sS'28156'
p1369
(I403
I1975
tp1370
sS'18608'
p1371
(I494
I2374
tp1372
sS'18609'
p1373
(I692
I3236
tp1374
sS'18219'
p1375
(I33
I398
tp1376
sS'18218'
p1377
(I102
I679
tp1378
sS'18215'
p1379
(I482
I2313
tp1380
sS'18603'
p1381
(I376
I1873
tp1382
sS'18217'
p1383
(I94
I656
tp1384
sS'18216'
p1385
(I151
I910
tp1386
sS'18211'
p1387
(I273
I1355
tp1388
sS'18210'
p1389
(I538
I2550
tp1390
sS'18213'
p1391
(I350
I1709
tp1392
sS'18212'
p1393
(I548
I2585
tp1394
sS'43441'
p1395
(I29
I382
tp1396
sS'18268'
p1397
(I39
I443
tp1398
sS'18269'
p1399
(I81
I606
tp1400
sS'28149'
p1401
(I550
I2593
tp1402
sS'18505'
p1403
(I107
I702
tp1404
sS'18507'
p1405
(I137
I847
tp1406
sS'18506'
p1407
(I97
I668
tp1408
sS'18260'
p1409
(I9
I231
tp1410
sS'18261'
p1411
(I6
I208
tp1412
sS'18262'
p1413
(I61
I520
tp1414
sS'18263'
p1415
(I109
I711
tp1416
sS'18264'
p1417
(I11
I256
tp1418
sS'18265'
p1419
(I12
I262
tp1420
sS'18266'
p1421
(I10
I235
tp1422
sS'18267'
p1423
(I13
I262
tp1424
sS'18040'
p1425
(I124
I771
tp1426
sS'18041'
p1427
(I59
I517
tp1428
sS'18042'
p1429
(I19
I344
tp1430
sS'18043'
p1431
(I2
I121
tp1432
sS'18044'
p1433
(I24
I372
tp1434
sS'18045'
p1435
(I58
I516
tp1436
sS'18047'
p1437
(I91
I629
tp1438
sS'18048'
p1439
(I125
I771
tp1440
sS'18049'
p1441
(I15
I300
tp1442
sS'18328'
p1443
(I184
I1051
tp1444
sS'18284'
p1445
(I306
I1523
tp1446
sS'18282'
p1447
(I144
I875
tp1448
sS'18283'
p1449
(I86
I618
tp1450
sS'18280'
p1451
(I197
I1122
tp1452
sS'18281'
p1453
(I172
I982
tp1454
sS'18321'
p1455
(I119
I746
tp1456
sS'18320'
p1457
(I179
I1035
tp1458
sS'18323'
p1459
(I112
I723
tp1460
sS'18322'
p1461
(I247
I1257
tp1462
sS'18325'
p1463
(I226
I1201
tp1464
sS'18324'
p1465
(I315
I1564
tp1466
sS'18288'
p1467
(I93
I645
tp1468
sS'18326'
p1469
(I129
I786
tp1470
sS'18035'
p1471
(I30
I392
tp1472
sS'18037'
p1473
(I7
I212
tp1474
sS'18036'
p1475
(I55
I503
tp1476
sS'18139'
p1477
(I335
I1643
tp1478
sS'18033'
p1479
(I80
I604
tp1480
sS'18032'
p1481
(I96
I664
tp1482
sS'18134'
p1483
(I78
I602
tp1484
sS'18135'
p1485
(I605
I2850
tp1486
sS'18039'
p1487
(I87
I620
tp1488
sS'18038'
p1489
(I26
I374
tp1490
sS'18133'
p1491
(I330
I1614
tp1492
sS'28278'
p1493
(I517
I2470
tp1494
sS'28279'
p1495
(I503
I2414
tp1496
sS'28270'
p1497
(I674
I3182
tp1498
sS'28271'
p1499
(I609
I2866
tp1500
sS'28272'
p1501
(I766
I3611
tp1502
sS'28273'
p1503
(I716
I3329
tp1504
sS'28274'
p1505
(I580
I2724
tp1506
sS'28275'
p1507
(I720
I3338
tp1508
sS'28276'
p1509
(I639
I3018
tp1510
sS'28277'
p1511
(I551
I2594
tp1512
sS'28078'
p1513
(I782
I3712
tp1514
sS'28079'
p1515
(I736
I3429
tp1516
sS'28076'
p1517
(I764
I3600
tp1518
sS'28077'
p1519
(I751
I3508
tp1520
sS'28074'
p1521
(I681
I3197
tp1522
sS'28075'
p1523
(I762
I3589
tp1524
sS'28072'
p1525
(I663
I3120
tp1526
sS'28103'
p1527
(I722
I3342
tp1528
sS'28070'
p1529
(I678
I3190
tp1530
sS'28071'
p1531
(I676
I3187
tp1532
sS'28296'
p1533
(I571
I2700
tp1534
sS'28297'
p1535
(I438
I2123
tp1536
sS'28294'
p1537
(I717
I3329
tp1538
sS'28295'
p1539
(I161
I949
tp1540
sS'28292'
p1541
(I515
I2459
tp1542
sS'28293'
p1543
(I723
I3343
tp1544
sS'28290'
p1545
(I622
I2935
tp1546
sS'28291'
p1547
(I738
I3441
tp1548
sS'28298'
p1549
(I342
I1695
tp1550
sS'28299'
p1551
(I568
I2680
tp1552
sS'28204'
p1553
(I784
I3722
tp1554
sS'28199'
p1555
(I707
I3291
tp1556
sS'28198'
p1557
(I683
I3214
tp1558
sS'28195'
p1559
(I774
I3672
tp1560
sS'28194'
p1561
(I769
I3633
tp1562
sS'28197'
p1563
(I741
I3481
tp1564
sS'28196'
p1565
(I776
I3684
tp1566
sS'28191'
p1567
(I456
I2179
tp1568
sS'28190'
p1569
(I519
I2480
tp1570
sS'28193'
p1571
(I466
I2236
tp1572
sS'28192'
p1573
(I498
I2388
tp1574
sS'28209'
p1575
(I790
I3766
tp1576
sS'28208'
p1577
(I672
I3178
tp1578
sS'28205'
p1579
(I677
I3187
tp1580
sS'28101'
p1581
(I525
I2500
tp1582
sS'28207'
p1583
(I758
I3570
tp1584
sS'28206'
p1585
(I748
I3498
tp1586
sS'28201'
p1587
(I779
I3699
tp1588
sS'28200'
p1589
(I771
I3665
tp1590
sS'28203'
p1591
(I746
I3494
tp1592
sS'28202'
p1593
(I666
I3139
tp1594
s.