(dp0
S'19719'
p1
(I107
I602
tp2
sS'19710'
p3
(I174
I909
tp4
sS'19014'
p5
(I202
I1014
tp6
sS'19013'
p7
(I204
I1017
tp8
sS'19393'
p9
(I63
I409
tp10
sS'19159'
p11
(I323
I1465
tp12
sS'19409'
p13
(I263
I1225
tp14
sS'19155'
p15
(I297
I1342
tp16
sS'19154'
p17
(I198
I995
tp18
sS'19157'
p19
(I340
I1600
tp20
sS'19156'
p21
(I243
I1174
tp22
sS'19151'
p23
(I290
I1315
tp24
sS'19150'
p25
(I284
I1303
tp26
sS'19153'
p27
(I287
I1310
tp28
sS'19152'
p29
(I328
I1491
tp30
sS'19375'
p31
(I190
I972
tp32
sS'19371'
p33
(I170
I893
tp34
sS'19370'
p35
(I262
I1220
tp36
sS'19372'
p37
(I158
I859
tp38
sS'19270'
p39
(I126
I688
tp40
sS'19271'
p41
(I106
I602
tp42
sS'19300'
p43
(I130
I710
tp44
sS'19301'
p45
(I205
I1017
tp46
sS'19302'
p47
(I322
I1450
tp48
sS'19303'
p49
(I134
I736
tp50
sS'19304'
p51
(I146
I806
tp52
sS'19306'
p53
(I331
I1535
tp54
sS'19307'
p55
(I337
I1593
tp56
sS'19308'
p57
(I344
I1626
tp58
sS'19309'
p59
(I279
I1291
tp60
sS'19878'
p61
(I114
I634
tp62
sS'19879'
p63
(I138
I753
tp64
sS'19872'
p65
(I73
I460
tp66
sS'19873'
p67
(I26
I304
tp68
sS'19871'
p69
(I17
I286
tp70
sS'19876'
p71
(I131
I714
tp72
sS'19877'
p73
(I96
I575
tp74
sS'19874'
p75
(I84
I503
tp76
sS'19875'
p77
(I119
I664
tp78
sS'43057'
p79
(I168
I888
tp80
sS'43058'
p81
(I136
I741
tp82
sS'42227'
p83
(I220
I1093
tp84
sS'19188'
p85
(I210
I1032
tp86
sS'19189'
p87
(I50
I359
tp88
sS'19182'
p89
(I94
I568
tp90
sS'19183'
p91
(I82
I501
tp92
sS'19181'
p93
(I285
I1304
tp94
sS'19186'
p95
(I99
I587
tp96
sS'19187'
p97
(I169
I893
tp98
sS'19184'
p99
(I244
I1175
tp100
sS'19185'
p101
(I53
I367
tp102
sS'19111'
p103
(I294
I1334
tp104
sS'19110'
p105
(I333
I1539
tp106
sS'19113'
p107
(I127
I691
tp108
sS'19112'
p109
(I214
I1051
tp110
sS'19115'
p111
(I236
I1159
tp112
sS'19114'
p113
(I108
I605
tp114
sS'19117'
p115
(I176
I911
tp116
sS'19116'
p117
(I171
I896
tp118
sS'19119'
p119
(I299
I1350
tp120
sS'19118'
p121
(I261
I1218
tp122
sS'44018'
p123
(I166
I885
tp124
sS'19331'
p125
(I59
I403
tp126
sS'19330'
p127
(I183
I943
tp128
sS'19333'
p129
(I49
I358
tp130
sS'19332'
p131
(I181
I941
tp132
sS'19335'
p133
(I230
I1128
tp134
sS'19334'
p135
(I218
I1087
tp136
sS'19337'
p137
(I201
I1005
tp138
sS'19336'
p139
(I231
I1130
tp140
sS'19244'
p141
(I153
I847
tp142
sS'19247'
p143
(I77
I480
tp144
sS'19246'
p145
(I144
I792
tp146
sS'19241'
p147
(I195
I988
tp148
sS'19240'
p149
(I147
I813
tp150
sS'19243'
p151
(I341
I1606
tp152
sS'19249'
p153
(I272
I1258
tp154
sS'19248'
p155
(I316
I1434
tp156
sS'19279'
p157
(I295
I1336
tp158
sS'43541'
p159
(I113
I630
tp160
sS'19230'
p161
(I249
I1195
tp162
sS'19231'
p163
(I6
I243
tp164
sS'19232'
p165
(I23
I299
tp166
sS'19233'
p167
(I38
I327
tp168
sS'19234'
p169
(I55
I379
tp170
sS'19235'
p171
(I27
I305
tp172
sS'19236'
p173
(I306
I1370
tp174
sS'19238'
p175
(I314
I1410
tp176
sS'19239'
p177
(I240
I1166
tp178
sS'19379'
p179
(I324
I1467
tp180
sS'43046'
p181
(I184
I952
tp182
sS'42063'
p183
(I30
I313
tp184
sS'42281'
p185
(I120
I667
tp186
sS'44110'
p187
(I72
I458
tp188
sS'43346'
p189
(I22
I298
tp190
sS'43269'
p191
(I98
I582
tp192
sS'19065'
p193
(I307
I1371
tp194
sS'19064'
p195
(I193
I985
tp196
sS'19067'
p197
(I182
I942
tp198
sS'19069'
p199
(I266
I1246
tp200
sS'19068'
p201
(I254
I1205
tp202
sS'19382'
p203
(I256
I1205
tp204
sS'19383'
p205
(I330
I1524
tp206
sS'19384'
p207
(I209
I1024
tp208
sS'19387'
p209
(I64
I417
tp210
sS'19148'
p211
(I281
I1295
tp212
sS'19149'
p213
(I293
I1333
tp214
sS'19146'
p215
(I338
I1594
tp216
sS'19147'
p217
(I203
I1014
tp218
sS'19144'
p219
(I305
I1368
tp220
sS'19145'
p221
(I345
I1630
tp222
sS'19142'
p223
(I278
I1291
tp224
sS'19143'
p225
(I245
I1177
tp226
sS'19140'
p227
(I247
I1179
tp228
sS'19141'
p229
(I313
I1408
tp230
sS'19209'
p231
(I8
I261
tp232
sS'19208'
p233
(I11
I266
tp234
sS'19364'
p235
(I110
I620
tp236
sS'19365'
p237
(I154
I852
tp238
sS'19362'
p239
(I117
I650
tp240
sS'19363'
p241
(I286
I1308
tp242
sS'19360'
p243
(I132
I720
tp244
sS'19361'
p245
(I178
I934
tp246
sS'19201'
p247
(I76
I474
tp248
sS'19203'
p249
(I78
I484
tp250
sS'19202'
p251
(I276
I1273
tp252
sS'19205'
p253
(I10
I265
tp254
sS'19204'
p255
(I44
I338
tp256
sS'19207'
p257
(I62
I409
tp258
sS'19206'
p259
(I265
I1237
tp260
sS'19704'
p261
(I48
I357
tp262
sS'19705'
p263
(I194
I986
tp264
sS'19706'
p265
(I199
I999
tp266
sS'19701'
p267
(I177
I911
tp268
sS'19702'
p269
(I148
I815
tp270
sS'19703'
p271
(I74
I462
tp272
sS'19708'
p273
(I167
I888
tp274
sS'19709'
p275
(I122
I678
tp276
sS'19720'
p277
(I86
I535
tp278
sS'43514'
p279
(I28
I308
tp280
sS'19102'
p281
(I225
I1106
tp282
sS'19103'
p283
(I257
I1207
tp284
sS'19100'
p285
(I269
I1254
tp286
sS'19101'
p287
(I235
I1158
tp288
sS'19106'
p289
(I215
I1067
tp290
sS'19107'
p291
(I221
I1094
tp292
sS'19104'
p293
(I246
I1178
tp294
sS'19105'
p295
(I260
I1217
tp296
sS'19108'
p297
(I217
I1087
tp298
sS'19109'
p299
(I280
I1293
tp300
sS'19083'
p301
(I229
I1125
tp302
sS'19328'
p303
(I234
I1157
tp304
sS'19080'
p305
(I264
I1226
tp306
sS'19087'
p307
(I319
I1441
tp308
sS'19086'
p309
(I275
I1270
tp310
sS'19085'
p311
(I334
I1548
tp312
sS'19084'
p313
(I288
I1311
tp314
sS'19322'
p315
(I335
I1563
tp316
sS'19323'
p317
(I60
I408
tp318
sS'19320'
p319
(I253
I1204
tp320
sS'19088'
p321
(I92
I566
tp322
sS'19326'
p323
(I258
I1215
tp324
sS'19327'
p325
(I228
I1121
tp326
sS'19324'
p327
(I339
I1598
tp328
sS'19325'
p329
(I47
I343
tp330
sS'43098'
p331
(I5
I240
tp332
sS'44158'
p333
(I57
I389
tp334
sS'44258'
p335
(I164
I880
tp336
sS'44259'
p337
(I175
I909
tp338
sS'19256'
p339
(I347
I1660
tp340
sS'19254'
p341
(I342
I1614
tp342
sS'19255'
p343
(I296
I1337
tp344
sS'19252'
p345
(I298
I1345
tp346
sS'19250'
p347
(I317
I1434
tp348
sS'19883'
p349
(I109
I614
tp350
sS'19882'
p351
(I103
I597
tp352
sS'19881'
p353
(I116
I647
tp354
sS'19880'
p355
(I139
I758
tp356
sS'19887'
p357
(I159
I861
tp358
sS'19886'
p359
(I133
I734
tp360
sS'19258'
p361
(I346
I1638
tp362
sS'19884'
p363
(I102
I596
tp364
sS'42074'
p365
(I100
I591
tp366
sS'43506'
p367
(I152
I845
tp368
sS'42196'
p369
(I318
I1440
tp370
sS'44260'
p371
(I156
I856
tp372
sS'19350'
p373
(I196
I993
tp374
sS'43216'
p375
(I227
I1119
tp376
sS'19070'
p377
(I312
I1408
tp378
sS'19071'
p379
(I268
I1254
tp380
sS'19076'
p381
(I206
I1020
tp382
sS'19077'
p383
(I161
I872
tp384
sS'19074'
p385
(I242
I1170
tp386
sS'19075'
p387
(I309
I1383
tp388
sS'19078'
p389
(I179
I936
tp390
sS'19079'
p391
(I327
I1475
tp392
sS'43028'
p393
(I61
I408
tp394
sS'19173'
p395
(I34
I321
tp396
sS'19172'
p397
(I223
I1097
tp398
sS'19171'
p399
(I111
I624
tp400
sS'19170'
p401
(I18
I297
tp402
sS'19177'
p403
(I7
I249
tp404
sS'19176'
p405
(I43
I337
tp406
sS'19175'
p407
(I140
I767
tp408
sS'19353'
p409
(I124
I683
tp410
sS'19352'
p411
(I128
I691
tp412
sS'19218'
p413
(I67
I437
tp414
sS'19219'
p415
(I20
I298
tp416
sS'19355'
p417
(I135
I737
tp418
sS'19212'
p419
(I13
I273
tp420
sS'19213'
p421
(I1
I187
tp422
sS'19359'
p423
(I332
I1537
tp424
sS'19216'
p425
(I188
I960
tp426
sS'19217'
p427
(I19
I297
tp428
sS'19214'
p429
(I2
I206
tp430
sS'19281'
p431
(I21
I298
tp432
sS'19280'
p433
(I65
I431
tp434
sS'19283'
p435
(I35
I322
tp436
sS'43450'
p437
(I40
I328
tp438
sS'44061'
p439
(I150
I836
tp440
sS'19856'
p441
(I46
I340
tp442
sS'19858'
p443
(I189
I968
tp444
sS'19859'
p445
(I162
I874
tp446
sS'19081'
p447
(I271
I1257
tp448
sS'19919'
p449
(I192
I976
tp450
sS'19918'
p451
(I88
I537
tp452
sS'19911'
p453
(I121
I675
tp454
sS'19910'
p455
(I277
I1277
tp456
sS'19913'
p457
(I186
I957
tp458
sS'19912'
p459
(I142
I776
tp460
sS'19914'
p461
(I310
I1402
tp462
sS'19917'
p463
(I300
I1350
tp464
sS'19916'
p465
(I24
I299
tp466
sS'43031'
p467
(I197
I993
tp468
sS'19089'
p469
(I123
I682
tp470
sS'19321'
p471
(I52
I365
tp472
sS'90480'
p473
(I163
I875
tp474
sS'19139'
p475
(I302
I1356
tp476
sS'19138'
p477
(I238
I1163
tp478
sS'19137'
p479
(I87
I536
tp480
sS'19136'
p481
(I343
I1620
tp482
sS'19135'
p483
(I321
I1443
tp484
sS'19134'
p485
(I270
I1255
tp486
sS'19132'
p487
(I255
I1205
tp488
sS'19130'
p489
(I308
I1374
tp490
sS'42148'
p491
(I315
I1416
tp492
sS'19098'
p493
(I239
I1164
tp494
sS'19099'
p495
(I219
I1093
tp496
sS'19094'
p497
(I75
I473
tp498
sS'19095'
p499
(I105
I599
tp500
sS'19096'
p501
(I31
I314
tp502
sS'19097'
p503
(I66
I433
tp504
sS'19090'
p505
(I95
I575
tp506
sS'19091'
p507
(I252
I1204
tp508
sS'19092'
p509
(I222
I1095
tp510
sS'19093'
p511
(I329
I1505
tp512
sS'19351'
p513
(I160
I870
tp514
sS'19263'
p515
(I15
I285
tp516
sS'19260'
p517
(I85
I513
tp518
sS'19265'
p519
(I79
I484
tp520
sS'19268'
p521
(I267
I1247
tp522
sS'19315'
p523
(I304
I1366
tp524
sS'19314'
p525
(I12
I271
tp526
sS'19313'
p527
(I283
I1301
tp528
sS'19312'
p529
(I51
I365
tp530
sS'19310'
p531
(I137
I747
tp532
sS'19319'
p533
(I71
I457
tp534
sS'19318'
p535
(I250
I1198
tp536
sS'19868'
p537
(I207
I1020
tp538
sS'19860'
p539
(I157
I857
tp540
sS'19867'
p541
(I16
I285
tp542
sS'19866'
p543
(I191
I972
tp544
sS'19894'
p545
(I89
I538
tp546
sS'19895'
p547
(I112
I626
tp548
sS'19896'
p549
(I292
I1330
tp550
sS'19897'
p551
(I224
I1099
tp552
sS'19890'
p553
(I143
I786
tp554
sS'19891'
p555
(I36
I322
tp556
sS'19892'
p557
(I54
I374
tp558
sS'19893'
p559
(I141
I767
tp560
sS'42040'
p561
(I125
I686
tp562
sS'19898'
p563
(I83
I501
tp564
sS'19899'
p565
(I104
I597
tp566
sS'42186'
p567
(I68
I443
tp568
sS'42187'
p569
(I70
I452
tp570
sS'42185'
p571
(I9
I264
tp572
sS'42183'
p573
(I301
I1351
tp574
sS'19199'
p575
(I37
I326
tp576
sS'19198'
p577
(I248
I1184
tp578
sS'43060'
p579
(I115
I645
tp580
sS'19191'
p581
(I41
I329
tp582
sS'19190'
p583
(I29
I312
tp584
sS'19193'
p585
(I39
I328
tp586
sS'19195'
p587
(I33
I316
tp588
sS'19194'
p589
(I149
I836
tp590
sS'19164'
p591
(I211
I1034
tp592
sS'19165'
p593
(I91
I556
tp594
sS'19166'
p595
(I90
I543
tp596
sS'19160'
p597
(I326
I1472
tp598
sS'19161'
p599
(I303
I1359
tp600
sS'19162'
p601
(I320
I1441
tp602
sS'19163'
p603
(I200
I1001
tp604
sS'19168'
p605
(I32
I316
tp606
sS'19169'
p607
(I172
I898
tp608
sS'42131'
p609
(I81
I493
tp610
sS'19366'
p611
(I93
I566
tp612
sS'19348'
p613
(I185
I954
tp614
sS'19349'
p615
(I212
I1036
tp616
sS'19367'
p617
(I145
I799
tp618
sS'19345'
p619
(I69
I449
tp620
sS'19340'
p621
(I180
I937
tp622
sS'19292'
p623
(I336
I1592
tp624
sS'19293'
p625
(I80
I491
tp626
sS'19296'
p627
(I173
I898
tp628
sS'19297'
p629
(I118
I662
tp630
sS'19294'
p631
(I58
I398
tp632
sS'19295'
p633
(I325
I1468
tp634
sS'19908'
p635
(I233
I1146
tp636
sS'19909'
p637
(I151
I837
tp638
sS'19368'
p639
(I241
I1167
tp640
sS'19902'
p641
(I289
I1314
tp642
sS'19903'
p643
(I251
I1200
tp644
sS'19369'
p645
(I274
I1264
tp646
sS'19906'
p647
(I155
I856
tp648
sS'19907'
p649
(I187
I959
tp650
sS'19904'
p651
(I226
I1116
tp652
sS'19905'
p653
(I273
I1259
tp654
sS'19227'
p655
(I216
I1082
tp656
sS'19226'
p657
(I232
I1134
tp658
sS'19225'
p659
(I45
I339
tp660
sS'19223'
p661
(I3
I206
tp662
sS'19222'
p663
(I129
I707
tp664
sS'19221'
p665
(I4
I207
tp666
sS'19220'
p667
(I165
I882
tp668
sS'43026'
p669
(I56
I382
tp670
sS'19228'
p671
(I282
I1301
tp672
sS'43158'
p673
(I259
I1215
tp674
sS'19128'
p675
(I97
I576
tp676
sS'19129'
p677
(I101
I594
tp678
sS'19120'
p679
(I291
I1329
tp680
sS'19121'
p681
(I42
I331
tp682
sS'19122'
p683
(I14
I274
tp684
sS'19123'
p685
(I25
I303
tp686
sS'19124'
p687
(I237
I1161
tp688
sS'19125'
p689
(I311
I1405
tp690
sS'19126'
p691
(I208
I1022
tp692
sS'19127'
p693
(I213
I1049
tp694
s.