(dp0
S'20447'
p1
(I11
I196
tp2
sS'20446'
p3
(I157
I518
tp4
sS'20445'
p5
(I23
I222
tp6
sS'20444'
p7
(I106
I384
tp8
sS'20409'
p9
(I168
I558
tp10
sS'48052'
p11
(I80
I331
tp12
sS'20076'
p13
(I87
I337
tp14
sS'20077'
p15
(I88
I338
tp16
sS'20074'
p17
(I125
I447
tp18
sS'20075'
p19
(I133
I471
tp20
sS'20072'
p21
(I28
I238
tp22
sS'20073'
p23
(I71
I317
tp24
sS'20070'
p25
(I56
I292
tp26
sS'20071'
p27
(I36
I252
tp28
sS'20641'
p29
(I104
I374
tp30
sS'20078'
p31
(I116
I421
tp32
sS'20450'
p33
(I79
I329
tp34
sS'20451'
p35
(I21
I218
tp36
sS'20452'
p37
(I69
I311
tp38
sS'20453'
p39
(I19
I214
tp40
sS'20510'
p41
(I100
I364
tp42
sS'20041'
p43
(I35
I248
tp44
sS'20040'
p45
(I156
I505
tp46
sS'20047'
p47
(I8
I187
tp48
sS'20046'
p49
(I151
I501
tp50
sS'20045'
p51
(I18
I210
tp52
sS'20044'
p53
(I102
I367
tp54
sS'20049'
p55
(I16
I206
tp56
sS'20048'
p57
(I128
I454
tp58
sS'20138'
p59
(I103
I374
tp60
sS'20421'
p61
(I54
I283
tp62
sS'20420'
p63
(I152
I501
tp64
sS'20422'
p65
(I174
I574
tp66
sS'20115'
p67
(I5
I179
tp68
sS'20114'
p69
(I29
I243
tp70
sS'20117'
p71
(I38
I257
tp72
sS'20116'
p73
(I65
I305
tp74
sS'20111'
p75
(I147
I494
tp76
sS'20110'
p77
(I64
I304
tp78
sS'20113'
p79
(I183
I647
tp80
sS'20112'
p81
(I53
I283
tp82
sS'20058'
p83
(I27
I238
tp84
sS'20054'
p85
(I86
I337
tp86
sS'20055'
p87
(I6
I180
tp88
sS'20050'
p89
(I67
I311
tp90
sS'20051'
p91
(I17
I208
tp92
sS'20052'
p93
(I57
I294
tp94
sS'20053'
p95
(I15
I205
tp96
sS'20629'
p97
(I148
I498
tp98
sS'20628'
p99
(I142
I478
tp100
sS'20624'
p101
(I163
I546
tp102
sS'20623'
p103
(I161
I530
tp104
sS'20622'
p105
(I84
I335
tp106
sS'20345'
p107
(I48
I271
tp108
sS'20108'
p109
(I33
I246
tp110
sS'20109'
p111
(I165
I552
tp112
sS'20106'
p113
(I25
I230
tp114
sS'20107'
p115
(I62
I303
tp116
sS'20105'
p117
(I66
I308
tp118
sS'20102'
p119
(I14
I202
tp120
sS'20100'
p121
(I46
I267
tp122
sS'20101'
p123
(I92
I345
tp124
sS'20029'
p125
(I4
I174
tp126
sS'20028'
p127
(I75
I320
tp128
sS'20020'
p129
(I176
I576
tp130
sS'20023'
p131
(I119
I426
tp132
sS'20068'
p133
(I110
I394
tp134
sS'20025'
p135
(I139
I476
tp136
sS'20024'
p137
(I137
I473
tp138
sS'20027'
p139
(I101
I365
tp140
sS'20581'
p141
(I76
I325
tp142
sS'20521'
p143
(I59
I299
tp144
sS'20522'
p145
(I177
I578
tp146
sS'20523'
p147
(I9
I190
tp148
sS'20630'
p149
(I138
I475
tp150
sS'20481'
p151
(I94
I347
tp152
sS'20634'
p153
(I120
I427
tp154
sS'20635'
p155
(I124
I446
tp156
sS'20636'
p157
(I118
I425
tp158
sS'20139'
p159
(I50
I273
tp160
sS'20400'
p161
(I51
I282
tp162
sS'20133'
p163
(I123
I439
tp164
sS'20132'
p165
(I178
I583
tp166
sS'20131'
p167
(I150
I500
tp168
sS'20130'
p169
(I111
I395
tp170
sS'20137'
p171
(I41
I262
tp172
sS'20134'
p173
(I13
I201
tp174
sS'20038'
p175
(I127
I453
tp176
sS'20330'
p177
(I42
I264
tp178
sS'20032'
p179
(I40
I262
tp180
sS'20033'
p181
(I117
I424
tp182
sS'20030'
p183
(I61
I303
tp184
sS'20031'
p185
(I145
I485
tp186
sS'20036'
p187
(I169
I562
tp188
sS'20037'
p189
(I43
I265
tp190
sS'20034'
p191
(I7
I181
tp192
sS'20035'
p193
(I115
I421
tp194
sS'20124'
p195
(I60
I302
tp196
sS'20125'
p197
(I32
I245
tp198
sS'20126'
p199
(I131
I466
tp200
sS'20127'
p201
(I31
I244
tp202
sS'20120'
p203
(I135
I471
tp204
sS'20121'
p205
(I47
I269
tp206
sS'20089'
p207
(I3
I171
tp208
sS'20123'
p209
(I12
I197
tp210
sS'20087'
p211
(I30
I244
tp212
sS'20086'
p213
(I166
I556
tp214
sS'20084'
p215
(I82
I335
tp216
sS'20083'
p217
(I85
I336
tp218
sS'20082'
p219
(I78
I327
tp220
sS'20081'
p221
(I77
I326
tp222
sS'20080'
p223
(I108
I392
tp224
sS'20006'
p225
(I34
I248
tp226
sS'20005'
p227
(I114
I413
tp228
sS'20004'
p229
(I126
I448
tp230
sS'20003'
p231
(I90
I342
tp232
sS'20002'
p233
(I24
I225
tp234
sS'20001'
p235
(I155
I505
tp236
sS'20645'
p237
(I81
I334
tp238
sS'20647'
p239
(I173
I570
tp240
sS'20646'
p241
(I96
I356
tp242
sS'20410'
p243
(I74
I318
tp244
sS'20640'
p245
(I97
I357
tp246
sS'20009'
p247
(I130
I464
tp248
sS'20008'
p249
(I112
I401
tp250
sS'20324'
p251
(I143
I479
tp252
sS'20325'
p253
(I141
I478
tp254
sS'20322'
p255
(I170
I562
tp256
sS'20323'
p257
(I121
I429
tp258
sS'20320'
p259
(I179
I583
tp260
sS'20321'
p261
(I55
I286
tp262
sS'20545'
p263
(I52
I282
tp264
sS'20118'
p265
(I182
I635
tp266
sS'20098'
p267
(I49
I273
tp268
sS'20099'
p269
(I134
I471
tp270
sS'20022'
p271
(I167
I557
tp272
sS'20090'
p273
(I164
I550
tp274
sS'20091'
p275
(I140
I478
tp276
sS'20092'
p277
(I39
I260
tp278
sS'20093'
p279
(I63
I304
tp280
sS'20094'
p281
(I44
I265
tp282
sS'20095'
p283
(I72
I317
tp284
sS'20096'
p285
(I45
I266
tp286
sS'20097'
p287
(I58
I295
tp288
sS'20010'
p289
(I22
I222
tp290
sS'20011'
p291
(I132
I469
tp292
sS'20012'
p293
(I99
I362
tp294
sS'20013'
p295
(I1
I162
tp296
sS'20014'
p297
(I162
I544
tp298
sS'20015'
p299
(I89
I339
tp300
sS'20016'
p301
(I171
I563
tp302
sS'20017'
p303
(I175
I575
tp304
sS'20018'
p305
(I160
I529
tp306
sS'20019'
p307
(I181
I599
tp308
sS'20650'
p309
(I136
I472
tp310
sS'20466'
p311
(I37
I254
tp312
sS'20310'
p313
(I95
I350
tp314
sS'20317'
p315
(I159
I528
tp316
sS'20122'
p317
(I93
I346
tp318
sS'20315'
p319
(I129
I454
tp320
sS'20314'
p321
(I158
I520
tp322
sS'20088'
p323
(I91
I344
tp324
sS'20499'
p325
(I153
I501
tp326
sS'20142'
p327
(I144
I481
tp328
sS'20143'
p329
(I2
I163
tp330
sS'20140'
p331
(I122
I430
tp332
sS'20141'
p333
(I20
I216
tp334
sS'20381'
p335
(I68
I311
tp336
sS'20129'
p337
(I98
I360
tp338
sS'20316'
p339
(I172
I569
tp340
sS'20065'
p341
(I107
I391
tp342
sS'20064'
p343
(I109
I393
tp344
sS'20067'
p345
(I146
I487
tp346
sS'20066'
p347
(I26
I237
tp348
sS'20061'
p349
(I154
I503
tp350
sS'20060'
p351
(I113
I412
tp352
sS'20063'
p353
(I73
I318
tp354
sS'20062'
p355
(I105
I379
tp356
sS'20069'
p357
(I70
I315
tp358
sS'20301'
p359
(I83
I335
tp360
sS'20302'
p361
(I10
I195
tp362
sS'20649'
p363
(I149
I498
tp364
sS'20648'
p365
(I180
I586
tp366
s.