(dp0
S'21404'
p1
(I89
I625
tp2
sS'21405'
p3
(I181
I952
tp4
sS'21406'
p5
(I93
I629
tp6
sS'21407'
p7
(I140
I834
tp8
sS'21400'
p9
(I152
I867
tp10
sS'21401'
p11
(I103
I672
tp12
sS'21402'
p13
(I58
I489
tp14
sS'21403'
p15
(I101
I665
tp16
sS'21101'
p17
(I307
I1470
tp18
sS'21100'
p19
(I162
I898
tp20
sS'21102'
p21
(I119
I756
tp22
sS'21105'
p23
(I179
I948
tp24
sS'21104'
p25
(I146
I854
tp26
sS'21107'
p27
(I290
I1406
tp28
sS'21106'
p29
(I199
I1022
tp30
sS'21109'
p31
(I110
I708
tp32
sS'21108'
p33
(I263
I1283
tp34
sS'21068'
p35
(I88
I623
tp36
sS'21069'
p37
(I237
I1182
tp38
sS'21066'
p39
(I130
I805
tp40
sS'21067'
p41
(I76
I598
tp42
sS'21064'
p43
(I83
I615
tp44
sS'21065'
p45
(I79
I606
tp46
sS'21062'
p47
(I80
I607
tp48
sS'21063'
p49
(I67
I556
tp50
sS'21060'
p51
(I74
I595
tp52
sS'21061'
p53
(I142
I838
tp54
sS'21202'
p55
(I153
I869
tp56
sS'22903'
p57
(I246
I1233
tp58
sS'21324'
p59
(I364
I1726
tp60
sS'21291'
p61
(I178
I943
tp62
sS'21290'
p63
(I165
I912
tp64
sS'21293'
p65
(I332
I1562
tp66
sS'21292'
p67
(I207
I1064
tp68
sS'21295'
p69
(I360
I1685
tp70
sS'21294'
p71
(I287
I1398
tp72
sS'21297'
p73
(I327
I1541
tp74
sS'21296'
p75
(I343
I1609
tp76
sS'21299'
p77
(I279
I1340
tp78
sS'21298'
p79
(I173
I931
tp80
sS'21336'
p81
(I145
I852
tp82
sS'21337'
p83
(I209
I1066
tp84
sS'21334'
p85
(I95
I646
tp86
sS'21335'
p87
(I135
I816
tp88
sS'21444'
p89
(I352
I1637
tp90
sS'21333'
p91
(I100
I663
tp92
sS'21446'
p93
(I70
I570
tp94
sS'21338'
p95
(I126
I793
tp96
sS'21339'
p97
(I117
I751
tp98
sS'21435'
p99
(I68
I560
tp100
sS'21434'
p101
(I54
I475
tp102
sS'21437'
p103
(I185
I960
tp104
sS'21436'
p105
(I141
I837
tp106
sS'21431'
p107
(I3
I223
tp108
sS'21430'
p109
(I2
I197
tp110
sS'21433'
p111
(I65
I528
tp112
sS'21432'
p113
(I8
I303
tp114
sS'21439'
p115
(I136
I818
tp116
sS'21438'
p117
(I109
I698
tp118
sS'21250'
p119
(I251
I1254
tp120
sS'21022'
p121
(I202
I1046
tp122
sS'21023'
p123
(I200
I1024
tp124
sS'21020'
p125
(I283
I1359
tp126
sS'21021'
p127
(I154
I882
tp128
sS'21026'
p129
(I224
I1136
tp130
sS'21027'
p131
(I266
I1290
tp132
sS'21024'
p133
(I308
I1472
tp134
sS'21028'
p135
(I104
I673
tp136
sS'21029'
p137
(I242
I1216
tp138
sS'21259'
p139
(I186
I970
tp140
sS'21311'
p141
(I331
I1558
tp142
sS'21097'
p143
(I297
I1435
tp144
sS'21096'
p145
(I323
I1526
tp146
sS'21095'
p147
(I139
I828
tp148
sS'21094'
p149
(I338
I1582
tp150
sS'21093'
p151
(I170
I926
tp152
sS'21092'
p153
(I320
I1511
tp154
sS'21091'
p155
(I298
I1436
tp156
sS'21090'
p157
(I253
I1260
tp158
sS'21099'
p159
(I221
I1120
tp160
sS'21098'
p161
(I143
I843
tp162
sS'21484'
p163
(I310
I1473
tp164
sS'21485'
p165
(I355
I1643
tp166
sS'21486'
p167
(I197
I1017
tp168
sS'21487'
p169
(I96
I651
tp170
sS'21480'
p171
(I261
I1278
tp172
sS'21482'
p173
(I306
I1465
tp174
sS'21483'
p175
(I342
I1608
tp176
sS'21488'
p177
(I326
I1538
tp178
sS'21273'
p179
(I270
I1306
tp180
sS'21272'
p181
(I228
I1158
tp182
sS'21378'
p183
(I27
I393
tp184
sS'21270'
p185
(I35
I411
tp186
sS'21277'
p187
(I285
I1372
tp188
sS'21276'
p189
(I192
I992
tp190
sS'21275'
p191
(I267
I1300
tp192
sS'21274'
p193
(I262
I1279
tp194
sS'21279'
p195
(I330
I1553
tp196
sS'21278'
p197
(I288
I1405
tp198
sS'21376'
p199
(I29
I397
tp200
sS'21377'
p201
(I40
I426
tp202
sS'21479'
p203
(I273
I1322
tp204
sS'21478'
p205
(I324
I1532
tp206
sS'21471'
p207
(I223
I1120
tp208
sS'21470'
p209
(I163
I903
tp210
sS'21473'
p211
(I322
I1525
tp212
sS'21472'
p213
(I265
I1287
tp214
sS'21475'
p215
(I255
I1260
tp216
sS'21474'
p217
(I296
I1433
tp218
sS'21477'
p219
(I304
I1464
tp220
sS'21476'
p221
(I293
I1413
tp222
sS'21505'
p223
(I258
I1273
tp224
sS'21504'
p225
(I232
I1164
tp226
sS'21507'
p227
(I315
I1499
tp228
sS'21506'
p229
(I329
I1552
tp230
sS'21501'
p231
(I131
I806
tp232
sS'21500'
p233
(I133
I813
tp234
sS'21503'
p235
(I166
I914
tp236
sS'21509'
p237
(I366
I1746
tp238
sS'21508'
p239
(I187
I974
tp240
sS'21112'
p241
(I189
I989
tp242
sS'21113'
p243
(I78
I603
tp244
sS'21110'
p245
(I254
I1260
tp246
sS'21111'
p247
(I122
I783
tp248
sS'21116'
p249
(I85
I619
tp250
sS'21117'
p251
(I191
I992
tp252
sS'21114'
p253
(I81
I609
tp254
sS'21115'
p255
(I102
I670
tp256
sS'21118'
p257
(I168
I918
tp258
sS'21119'
p259
(I120
I760
tp260
sS'21059'
p261
(I313
I1482
tp262
sS'21058'
p263
(I167
I917
tp264
sS'21053'
p265
(I22
I368
tp266
sS'21052'
p267
(I19
I365
tp268
sS'21057'
p269
(I15
I344
tp270
sS'21056'
p271
(I18
I360
tp272
sS'21055'
p273
(I21
I367
tp274
sS'21054'
p275
(I12
I329
tp276
sS'21237'
p277
(I236
I1181
tp278
sS'21235'
p279
(I301
I1440
tp280
sS'21234'
p281
(I226
I1146
tp282
sS'21233'
p283
(I300
I1439
tp284
sS'21232'
p285
(I201
I1041
tp286
sS'21230'
p287
(I195
I1011
tp288
sS'21239'
p289
(I41
I429
tp290
sS'21238'
p291
(I214
I1083
tp292
sS'21282'
p293
(I134
I815
tp294
sS'21283'
p295
(I235
I1172
tp296
sS'21280'
p297
(I317
I1502
tp298
sS'21281'
p299
(I334
I1567
tp300
sS'21286'
p301
(I238
I1193
tp302
sS'21287'
p303
(I196
I1011
tp304
sS'21284'
p305
(I244
I1229
tp306
sS'21285'
p307
(I159
I892
tp308
sS'21288'
p309
(I205
I1054
tp310
sS'21289'
p311
(I144
I852
tp312
sS'21303'
p313
(I314
I1499
tp314
sS'21302'
p315
(I319
I1507
tp316
sS'21301'
p317
(I335
I1568
tp318
sS'21300'
p319
(I272
I1320
tp320
sS'21307'
p321
(I336
I1571
tp322
sS'21306'
p323
(I367
I1751
tp324
sS'21305'
p325
(I347
I1631
tp326
sS'21304'
p327
(I164
I906
tp328
sS'21309'
p329
(I171
I926
tp330
sS'21030'
p331
(I299
I1437
tp332
sS'21426'
p333
(I5
I235
tp334
sS'21427'
p335
(I7
I261
tp336
sS'21424'
p337
(I311
I1478
tp338
sS'21425'
p339
(I1
I175
tp340
sS'21422'
p341
(I271
I1309
tp342
sS'21420'
p343
(I48
I469
tp344
sS'21421'
p345
(I149
I864
tp346
sS'21428'
p347
(I17
I356
tp348
sS'21429'
p349
(I340
I1601
tp350
sS'21019'
p351
(I175
I934
tp352
sS'21018'
p353
(I71
I572
tp354
sS'21014'
p355
(I275
I1331
tp356
sS'21013'
p357
(I260
I1277
tp358
sS'21012'
p359
(I289
I1406
tp360
sS'21011'
p361
(I268
I1302
tp362
sS'21080'
p363
(I84
I616
tp364
sS'21082'
p365
(I204
I1053
tp366
sS'21083'
p367
(I31
I403
tp368
sS'21084'
p369
(I14
I339
tp370
sS'21085'
p371
(I44
I448
tp372
sS'21086'
p373
(I57
I488
tp374
sS'21087'
p375
(I72
I579
tp376
sS'21088'
p377
(I38
I419
tp378
sS'21089'
p379
(I325
I1537
tp380
sS'21347'
p381
(I333
I1562
tp382
sS'21346'
p383
(I184
I956
tp384
sS'21345'
p385
(I277
I1337
tp386
sS'21344'
p387
(I349
I1636
tp388
sS'21343'
p389
(I161
I897
tp390
sS'21341'
p391
(I240
I1198
tp392
sS'21340'
p393
(I291
I1410
tp394
sS'21349'
p395
(I351
I1637
tp396
sS'21348'
p397
(I123
I783
tp398
sS'21268'
p399
(I233
I1168
tp400
sS'21269'
p401
(I86
I619
tp402
sS'21264'
p403
(I132
I808
tp404
sS'21265'
p405
(I87
I621
tp406
sS'21266'
p407
(I51
I472
tp408
sS'21267'
p409
(I56
I485
tp410
sS'21260'
p411
(I211
I1074
tp412
sS'21261'
p413
(I174
I933
tp414
sS'21262'
p415
(I61
I514
tp416
sS'21263'
p417
(I52
I474
tp418
sS'21271'
p419
(I231
I1161
tp420
sS'21379'
p421
(I23
I372
tp422
sS'21468'
p423
(I348
I1632
tp424
sS'21469'
p425
(I107
I691
tp426
sS'21462'
p427
(I155
I883
tp428
sS'21463'
p429
(I39
I420
tp430
sS'21461'
p431
(I118
I752
tp432
sS'21466'
p433
(I53
I474
tp434
sS'21467'
p435
(I90
I626
tp436
sS'21464'
p437
(I25
I377
tp438
sS'21465'
p439
(I43
I434
tp440
sS'21514'
p441
(I91
I628
tp442
sS'21515'
p443
(I127
I796
tp444
sS'21512'
p445
(I309
I1472
tp446
sS'21513'
p447
(I82
I614
tp448
sS'21510'
p449
(I282
I1357
tp450
sS'21511'
p451
(I305
I1464
tp452
sS'21046'
p453
(I121
I770
tp454
sS'21047'
p455
(I42
I434
tp456
sS'21129'
p457
(I292
I1413
tp458
sS'21043'
p459
(I341
I1604
tp460
sS'21127'
p461
(I49
I470
tp462
sS'21126'
p463
(I9
I319
tp464
sS'21125'
p465
(I16
I351
tp466
sS'21124'
p467
(I113
I714
tp468
sS'21048'
p469
(I147
I857
tp470
sS'21120'
p471
(I129
I802
tp472
sS'21389'
p473
(I225
I1140
tp474
sS'21388'
p475
(I353
I1639
tp476
sS'21224'
p477
(I176
I936
tp478
sS'21225'
p479
(I198
I1018
tp480
sS'21226'
p481
(I239
I1198
tp482
sS'21227'
p483
(I247
I1245
tp484
sS'21228'
p485
(I274
I1324
tp486
sS'21229'
p487
(I194
I1006
tp488
sS'21381'
p489
(I47
I469
tp490
sS'21380'
p491
(I60
I497
tp492
sS'21387'
p493
(I269
I1305
tp494
sS'21386'
p495
(I312
I1480
tp496
sS'21385'
p497
(I248
I1249
tp498
sS'21384'
p499
(I303
I1451
tp500
sS'21255'
p501
(I243
I1225
tp502
sS'21254'
p503
(I210
I1074
tp504
sS'21256'
p505
(I177
I940
tp506
sS'21251'
p507
(I337
I1581
tp508
sS'21319'
p509
(I215
I1086
tp510
sS'21253'
p511
(I222
I1120
tp512
sS'21252'
p513
(I219
I1112
tp514
sS'21314'
p515
(I92
I629
tp516
sS'21315'
p517
(I125
I790
tp518
sS'21316'
p519
(I77
I599
tp520
sS'21310'
p521
(I169
I921
tp522
sS'21258'
p523
(I156
I885
tp524
sS'21313'
p525
(I160
I894
tp526
sS'21413'
p527
(I75
I597
tp528
sS'21412'
p529
(I105
I675
tp530
sS'21411'
p531
(I241
I1206
tp532
sS'21410'
p533
(I252
I1254
tp534
sS'21417'
p535
(I302
I1443
tp536
sS'21416'
p537
(I62
I515
tp538
sS'21415'
p539
(I362
I1697
tp540
sS'21419'
p541
(I370
I1819
tp542
sS'21418'
p543
(I249
I1252
tp544
sS'21008'
p545
(I316
I1501
tp546
sS'21009'
p547
(I344
I1610
tp548
sS'21002'
p549
(I190
I991
tp550
sS'21003'
p551
(I250
I1253
tp552
sS'21004'
p553
(I128
I802
tp554
sS'21005'
p555
(I264
I1284
tp556
sS'21006'
p557
(I220
I1114
tp558
sS'21007'
p559
(I278
I1340
tp560
sS'21042'
p561
(I10
I323
tp562
sS'21128'
p563
(I28
I395
tp564
sS'21078'
p565
(I229
I1159
tp566
sS'21075'
p567
(I94
I640
tp568
sS'21074'
p569
(I116
I745
tp570
sS'21077'
p571
(I30
I402
tp572
sS'21076'
p573
(I69
I565
tp574
sS'21071'
p575
(I137
I819
tp576
sS'21070'
p577
(I108
I693
tp578
sS'21073'
p579
(I99
I659
tp580
sS'21072'
p581
(I111
I711
tp582
sS'21440'
p583
(I216
I1092
tp584
sS'21441'
p585
(I234
I1170
tp586
sS'21442'
p587
(I4
I224
tp588
sS'21443'
p589
(I6
I256
tp590
sS'21445'
p591
(I24
I376
tp592
sS'21350'
p593
(I203
I1046
tp594
sS'21355'
p595
(I206
I1054
tp596
sS'21356'
p597
(I157
I889
tp598
sS'21357'
p599
(I180
I950
tp600
sS'21358'
p601
(I358
I1666
tp602
sS'21359'
p603
(I284
I1368
tp604
sS'21210'
p605
(I20
I365
tp606
sS'21213'
p607
(I115
I728
tp608
sS'21214'
p609
(I13
I334
tp610
sS'21457'
p611
(I256
I1265
tp612
sS'21456'
p613
(I188
I977
tp614
sS'21327'
p615
(I354
I1643
tp616
sS'21321'
p617
(I112
I711
tp618
sS'21329'
p619
(I365
I1735
tp620
sS'21328'
p621
(I371
I1827
tp622
sS'21459'
p623
(I286
I1394
tp624
sS'21458'
p625
(I257
I1273
tp626
sS'21244'
p627
(I97
I653
tp628
sS'21245'
p629
(I11
I327
tp630
sS'21493'
p631
(I356
I1644
tp632
sS'21360'
p633
(I368
I1752
tp634
sS'21491'
p635
(I361
I1685
tp636
sS'21490'
p637
(I37
I413
tp638
sS'21497'
p639
(I328
I1547
tp640
sS'21496'
p641
(I357
I1650
tp642
sS'21495'
p643
(I345
I1612
tp644
sS'21494'
p645
(I318
I1506
tp646
sS'21138'
p647
(I138
I820
tp648
sS'21139'
p649
(I33
I411
tp650
sS'21033'
p651
(I63
I519
tp652
sS'21032'
p653
(I66
I548
tp654
sS'21035'
p655
(I106
I682
tp656
sS'21034'
p657
(I55
I483
tp658
sS'21036'
p659
(I124
I784
tp660
sS'21130'
p661
(I363
I1721
tp662
sS'21131'
p663
(I50
I471
tp664
sS'21132'
p665
(I46
I465
tp666
sS'21133'
p667
(I36
I412
tp668
sS'21134'
p669
(I32
I405
tp670
sS'21135'
p671
(I45
I449
tp672
sS'21149'
p673
(I213
I1078
tp674
sS'21148'
p675
(I158
I890
tp676
sS'21145'
p677
(I193
I1004
tp678
sS'21144'
p679
(I227
I1156
tp680
sS'21147'
p681
(I148
I857
tp682
sS'21146'
p683
(I182
I953
tp684
sS'21141'
p685
(I208
I1066
tp686
sS'21140'
p687
(I26
I382
tp688
sS'21143'
p689
(I59
I495
tp690
sS'21142'
p691
(I369
I1800
tp692
sS'21383'
p693
(I276
I1336
tp694
sS'21382'
p695
(I150
I865
tp696
sS'21246'
p697
(I245
I1233
tp698
sS'21247'
p699
(I218
I1102
tp700
sS'21499'
p701
(I114
I724
tp702
sS'21498'
p703
(I295
I1427
tp704
sS'21242'
p705
(I259
I1274
tp706
sS'21243'
p707
(I73
I592
tp708
sS'21240'
p709
(I151
I866
tp710
sS'21241'
p711
(I183
I955
tp712
sS'21361'
p713
(I350
I1636
tp714
sS'21492'
p715
(I359
I1678
tp716
sS'21363'
p717
(I346
I1625
tp718
sS'21362'
p719
(I321
I1522
tp720
sS'21365'
p721
(I217
I1098
tp722
sS'21364'
p723
(I281
I1350
tp724
sS'21248'
p725
(I34
I411
tp726
sS'21249'
p727
(I172
I930
tp728
sS'21395'
p729
(I339
I1583
tp730
sS'21396'
p731
(I280
I1346
tp732
sS'21397'
p733
(I294
I1426
tp734
sS'21390'
p735
(I64
I526
tp736
sS'21393'
p737
(I98
I654
tp738
sS'21398'
p739
(I230
I1159
tp740
sS'21399'
p741
(I212
I1077
tp742
s.