(dp0
S'22931'
p1
(I6
I102
tp2
sS'22930'
p3
(I27
I214
tp4
sS'22932'
p5
(I3
I96
tp6
sS'22937'
p7
(I14
I150
tp8
sS'22939'
p9
(I49
I293
tp10
sS'22938'
p11
(I8
I114
tp12
sS'32022'
p13
(I74
I388
tp14
sS'32023'
p15
(I45
I266
tp16
sS'32020'
p17
(I102
I494
tp18
sS'32021'
p19
(I42
I262
tp20
sS'22928'
p21
(I89
I439
tp22
sS'22929'
p23
(I46
I267
tp24
sS'32013'
p25
(I50
I294
tp26
sS'32012'
p27
(I108
I509
tp28
sS'32011'
p29
(I59
I334
tp30
sS'32010'
p31
(I103
I499
tp32
sS'32017'
p33
(I107
I502
tp34
sS'32016'
p35
(I113
I526
tp36
sS'22919'
p37
(I55
I318
tp38
sS'22918'
p39
(I78
I396
tp40
sS'22917'
p41
(I72
I388
tp42
sS'22916'
p43
(I60
I340
tp44
sS'22915'
p45
(I5
I101
tp46
sS'22914'
p47
(I4
I101
tp48
sS'22401'
p49
(I2
I92
tp50
sS'22912'
p51
(I35
I238
tp52
sS'22911'
p53
(I30
I224
tp54
sS'22402'
p55
(I26
I196
tp56
sS'22997'
p57
(I19
I164
tp58
sS'22996'
p59
(I53
I312
tp60
sS'22995'
p61
(I28
I222
tp62
sS'22994'
p63
(I29
I223
tp64
sS'22993'
p65
(I23
I183
tp66
sS'22992'
p67
(I10
I129
tp68
sS'22991'
p69
(I33
I231
tp70
sS'22990'
p71
(I18
I159
tp72
sS'22999'
p73
(I67
I374
tp74
sS'22998'
p75
(I79
I401
tp76
sS'22247'
p77
(I9
I117
tp78
sS'22908'
p79
(I56
I325
tp80
sS'32008'
p81
(I94
I452
tp82
sS'32009'
p83
(I99
I486
tp84
sS'22900'
p85
(I44
I265
tp86
sS'32005'
p87
(I76
I389
tp88
sS'32006'
p89
(I96
I463
tp90
sS'32007'
p91
(I106
I501
tp92
sS'32000'
p93
(I77
I393
tp94
sS'32001'
p95
(I57
I325
tp96
sS'32002'
p97
(I66
I373
tp98
sS'32003'
p99
(I71
I383
tp100
sS'22980'
p101
(I32
I225
tp102
sS'22981'
p103
(I39
I246
tp104
sS'22982'
p105
(I12
I143
tp106
sS'22983'
p107
(I24
I185
tp108
sS'22984'
p109
(I1
I76
tp110
sS'22985'
p111
(I25
I195
tp112
sS'22986'
p113
(I40
I246
tp114
sS'22987'
p115
(I13
I145
tp116
sS'22988'
p117
(I52
I298
tp118
sS'22989'
p119
(I37
I245
tp120
sS'22905'
p121
(I34
I232
tp122
sS'22947'
p123
(I64
I372
tp124
sS'22974'
p125
(I97
I468
tp126
sS'32004'
p127
(I92
I445
tp128
sS'22901'
p129
(I91
I442
tp130
sS'22979'
p131
(I15
I152
tp132
sS'22978'
p133
(I75
I389
tp134
sS'22975'
p135
(I95
I455
tp136
sS'22904'
p137
(I51
I296
tp138
sS'22977'
p139
(I73
I388
tp140
sS'22976'
p141
(I48
I278
tp142
sS'22971'
p143
(I70
I375
tp144
sS'22970'
p145
(I69
I375
tp146
sS'22973'
p147
(I112
I525
tp148
sS'22972'
p149
(I81
I402
tp150
sS'22906'
p151
(I93
I447
tp152
sS'22535'
p153
(I88
I436
tp154
sS'22537'
p155
(I111
I522
tp156
sS'22969'
p157
(I41
I257
tp158
sS'22966'
p159
(I16
I153
tp160
sS'22965'
p161
(I7
I111
tp162
sS'22962'
p163
(I105
I501
tp164
sS'22963'
p165
(I109
I511
tp166
sS'22960'
p167
(I98
I480
tp168
sS'22961'
p169
(I110
I512
tp170
sS'32015'
p171
(I101
I491
tp172
sS'32014'
p173
(I82
I404
tp174
sS'22528'
p175
(I62
I362
tp176
sS'22529'
p177
(I63
I370
tp178
sS'22522'
p179
(I22
I175
tp180
sS'32019'
p181
(I61
I343
tp182
sS'22959'
p183
(I100
I489
tp184
sS'32018'
p185
(I86
I425
tp186
sS'22953'
p187
(I85
I418
tp188
sS'22952'
p189
(I47
I271
tp190
sS'22951'
p191
(I31
I224
tp192
sS'22950'
p193
(I87
I433
tp194
sS'22957'
p195
(I38
I246
tp196
sS'22956'
p197
(I54
I317
tp198
sS'22955'
p199
(I90
I441
tp200
sS'22954'
p201
(I65
I372
tp202
sS'22899'
p203
(I11
I139
tp204
sS'22910'
p205
(I43
I263
tp206
sS'22944'
p207
(I68
I375
tp208
sS'22945'
p209
(I83
I410
tp210
sS'22946'
p211
(I58
I328
tp212
sS'22958'
p213
(I36
I241
tp214
sS'22940'
p215
(I20
I165
tp216
sS'22941'
p217
(I17
I159
tp218
sS'22942'
p219
(I21
I169
tp220
sS'22943'
p221
(I104
I501
tp222
sS'22948'
p223
(I80
I402
tp224
sS'22949'
p225
(I84
I414
tp226
s.