(dp0
S'25028'
p1
(I128
I586
tp2
sS'42283'
p3
(I140
I631
tp4
sS'19269'
p5
(I88
I442
tp6
sS'19818'
p7
(I3
I114
tp8
sS'19819'
p9
(I10
I156
tp10
sS'19814'
p11
(I27
I204
tp12
sS'19816'
p13
(I15
I165
tp14
sS'19817'
p15
(I4
I127
tp16
sS'19810'
p17
(I52
I305
tp18
sS'19811'
p19
(I81
I405
tp20
sS'19812'
p21
(I56
I315
tp22
sS'19813'
p23
(I30
I210
tp24
sS'19015'
p25
(I80
I393
tp26
sS'19016'
p27
(I96
I480
tp28
sS'19017'
p29
(I120
I554
tp30
sS'19010'
p31
(I57
I321
tp32
sS'43566'
p33
(I119
I553
tp34
sS'42272'
p35
(I162
I732
tp36
sS'19408'
p37
(I139
I630
tp38
sS'19407'
p39
(I147
I653
tp40
sS'19406'
p41
(I67
I365
tp42
sS'19405'
p43
(I105
I508
tp44
sS'19404'
p45
(I117
I551
tp46
sS'19403'
p47
(I28
I207
tp48
sS'19401'
p49
(I101
I493
tp50
sS'19400'
p51
(I163
I736
tp52
sS'25062'
p53
(I49
I298
tp54
sS'25063'
p55
(I167
I770
tp56
sS'25060'
p57
(I164
I738
tp58
sS'25064'
p59
(I116
I545
tp60
sS'19274'
p61
(I44
I276
tp62
sS'08546'
p63
(I87
I442
tp64
sS'19272'
p65
(I20
I172
tp66
sS'19273'
p67
(I21
I176
tp68
sS'19057'
p69
(I149
I670
tp70
sS'19061'
p71
(I50
I300
tp72
sS'19063'
p73
(I103
I496
tp74
sS'19062'
p75
(I74
I375
tp76
sS'43572'
p77
(I69
I369
tp78
sS'43109'
p79
(I35
I234
tp80
sS'19419'
p81
(I64
I348
tp82
sS'19410'
p83
(I160
I724
tp84
sS'42204'
p85
(I37
I236
tp86
sS'19412'
p87
(I145
I651
tp88
sS'19413'
p89
(I17
I170
tp90
sS'19414'
p91
(I13
I161
tp92
sS'19415'
p93
(I144
I635
tp94
sS'19416'
p95
(I12
I160
tp96
sS'43595'
p97
(I71
I373
tp98
sS'25059'
p99
(I26
I199
tp100
sS'25056'
p101
(I148
I654
tp102
sS'25055'
p103
(I65
I352
tp104
sS'25054'
p105
(I89
I447
tp106
sS'25053'
p107
(I132
I604
tp108
sS'25052'
p109
(I97
I484
tp110
sS'25051'
p111
(I23
I182
tp112
sS'25050'
p113
(I170
I790
tp114
sS'19418'
p115
(I129
I593
tp116
sS'43100'
p117
(I142
I633
tp118
sS'25048'
p119
(I38
I244
tp120
sS'19440'
p121
(I124
I568
tp122
sS'25040'
p123
(I86
I438
tp124
sS'25041'
p125
(I59
I323
tp126
sS'19441'
p127
(I53
I308
tp128
sS'25043'
p129
(I93
I468
tp130
sS'25045'
p131
(I68
I365
tp132
sS'19445'
p133
(I9
I152
tp134
sS'19444'
p135
(I43
I270
tp136
sS'25046'
p137
(I95
I472
tp138
sS'19411'
p139
(I106
I511
tp140
sS'19049'
p141
(I168
I771
tp142
sS'19048'
p143
(I165
I739
tp144
sS'19047'
p145
(I84
I427
tp146
sS'19046'
p147
(I136
I617
tp148
sS'19045'
p149
(I152
I695
tp150
sS'19043'
p151
(I122
I557
tp152
sS'19042'
p153
(I130
I594
tp154
sS'19041'
p155
(I137
I621
tp156
sS'19040'
p157
(I131
I602
tp158
sS'42139'
p159
(I143
I634
tp160
sS'19806'
p161
(I1
I88
tp162
sS'19857'
p163
(I110
I521
tp164
sS'25039'
p165
(I77
I386
tp166
sS'25038'
p167
(I138
I627
tp168
sS'25035'
p169
(I108
I515
tp170
sS'25034'
p171
(I79
I391
tp172
sS'25037'
p173
(I111
I535
tp174
sS'25036'
p175
(I125
I576
tp176
sS'25031'
p177
(I66
I354
tp178
sS'25030'
p179
(I85
I438
tp180
sS'25033'
p181
(I31
I220
tp182
sS'25032'
p183
(I76
I379
tp184
sS'19058'
p185
(I151
I694
tp186
sS'19059'
p187
(I14
I162
tp188
sS'19050'
p189
(I7
I140
tp190
sS'19051'
p191
(I33
I229
tp192
sS'19052'
p193
(I8
I142
tp194
sS'19053'
p195
(I24
I189
tp196
sS'19056'
p197
(I127
I582
tp198
sS'43447'
p199
(I91
I461
tp200
sS'19821'
p201
(I5
I137
tp202
sS'19820'
p203
(I62
I329
tp204
sS'19823'
p205
(I51
I303
tp206
sS'19822'
p207
(I18
I171
tp208
sS'25026'
p209
(I156
I714
tp210
sS'25027'
p211
(I155
I698
tp212
sS'25024'
p213
(I22
I176
tp214
sS'25025'
p215
(I2
I113
tp216
sS'25022'
p217
(I146
I652
tp218
sS'25023'
p219
(I153
I695
tp220
sS'25020'
p221
(I58
I323
tp222
sS'25021'
p223
(I45
I276
tp224
sS'08510'
p225
(I154
I697
tp226
sS'19024'
p227
(I102
I494
tp228
sS'19027'
p229
(I54
I312
tp230
sS'19026'
p231
(I113
I537
tp232
sS'19021'
p233
(I32
I223
tp234
sS'19020'
p235
(I78
I389
tp236
sS'19022'
p237
(I90
I451
tp238
sS'19524'
p239
(I150
I677
tp240
sS'25018'
p241
(I48
I294
tp242
sS'19833'
p243
(I34
I231
tp244
sS'25013'
p245
(I118
I551
tp246
sS'25012'
p247
(I72
I374
tp248
sS'25010'
p249
(I47
I283
tp250
sS'25017'
p251
(I19
I171
tp252
sS'25016'
p253
(I39
I247
tp254
sS'25015'
p255
(I25
I189
tp256
sS'25014'
p257
(I159
I721
tp258
sS'42259'
p259
(I55
I312
tp260
sS'19421'
p261
(I104
I503
tp262
sS'19420'
p263
(I41
I259
tp264
sS'19423'
p265
(I29
I210
tp266
sS'19422'
p267
(I94
I470
tp268
sS'19424'
p269
(I100
I492
tp270
sS'19038'
p271
(I70
I371
tp272
sS'19039'
p273
(I126
I579
tp274
sS'19036'
p275
(I16
I167
tp276
sS'19034'
p277
(I6
I138
tp278
sS'19035'
p279
(I135
I614
tp280
sS'19033'
p281
(I161
I732
tp282
sS'19031'
p283
(I73
I375
tp284
sS'25004'
p285
(I98
I489
tp286
sS'25005'
p287
(I123
I559
tp288
sS'25006'
p289
(I46
I281
tp290
sS'25007'
p291
(I171
I794
tp292
sS'25000'
p293
(I99
I490
tp294
sS'25001'
p295
(I82
I412
tp296
sS'25003'
p297
(I83
I415
tp298
sS'25008'
p299
(I42
I269
tp300
sS'25009'
p301
(I166
I750
tp302
sS'19802'
p303
(I157
I715
tp304
sS'19800'
p305
(I11
I159
tp306
sS'19807'
p307
(I107
I514
tp308
sS'43364'
p309
(I61
I328
tp310
sS'19804'
p311
(I109
I518
tp312
sS'19809'
p313
(I121
I555
tp314
sS'19433'
p315
(I63
I347
tp316
sS'19009'
p317
(I114
I538
tp318
sS'19008'
p319
(I158
I716
tp320
sS'19436'
p321
(I75
I378
tp322
sS'19437'
p323
(I60
I324
tp324
sS'19434'
p325
(I115
I541
tp326
sS'19435'
p327
(I40
I258
tp328
sS'19003'
p329
(I134
I607
tp330
sS'19002'
p331
(I133
I607
tp332
sS'19438'
p333
(I92
I467
tp334
sS'19439'
p335
(I36
I235
tp336
sS'19007'
p337
(I141
I633
tp338
sS'19005'
p339
(I169
I780
tp340
sS'19004'
p341
(I112
I536
tp342
s.