(dp0
S'35236'
p1
(I24
I219
tp2
sS'35237'
p3
(I141
I607
tp4
sS'35234'
p5
(I155
I638
tp6
sS'35235'
p7
(I19
I191
tp8
sS'35232'
p9
(I117
I517
tp10
sS'35233'
p11
(I127
I561
tp12
sS'35230'
p13
(I150
I632
tp14
sS'35231'
p15
(I154
I638
tp16
sS'35182'
p17
(I109
I489
tp18
sS'35238'
p19
(I7
I158
tp20
sS'35239'
p21
(I138
I593
tp22
sS'35183'
p23
(I152
I634
tp24
sS'35131'
p25
(I149
I623
tp26
sS'35039'
p27
(I27
I227
tp28
sS'35012'
p29
(I97
I449
tp30
sS'35188'
p31
(I65
I341
tp32
sS'35010'
p33
(I107
I473
tp34
sS'35011'
p35
(I42
I274
tp36
sS'35016'
p37
(I6
I155
tp38
sS'35017'
p39
(I17
I190
tp40
sS'35014'
p41
(I137
I593
tp42
sS'35015'
p43
(I41
I272
tp44
sS'35203'
p45
(I71
I350
tp46
sS'35202'
p47
(I33
I255
tp48
sS'35201'
p49
(I87
I398
tp50
sS'35200'
p51
(I81
I387
tp52
sS'35207'
p53
(I159
I664
tp54
sS'35206'
p55
(I58
I313
tp56
sS'35205'
p57
(I3
I102
tp58
sS'35204'
p59
(I92
I430
tp60
sS'35240'
p61
(I113
I506
tp62
sS'35030'
p63
(I34
I256
tp64
sS'35144'
p65
(I101
I456
tp66
sS'35145'
p67
(I75
I361
tp68
sS'35146'
p69
(I99
I455
tp70
sS'35211'
p71
(I106
I467
tp72
sS'35140'
p73
(I129
I563
tp74
sS'35141'
p75
(I131
I575
tp76
sS'35029'
p77
(I37
I264
tp78
sS'35028'
p79
(I12
I177
tp80
sS'35027'
p81
(I22
I214
tp82
sS'35026'
p83
(I5
I151
tp84
sS'35025'
p85
(I102
I461
tp86
sS'35024'
p87
(I35
I257
tp88
sS'35023'
p89
(I67
I343
tp90
sS'35149'
p91
(I80
I381
tp92
sS'35021'
p93
(I124
I551
tp94
sS'35049'
p95
(I43
I274
tp96
sS'35048'
p97
(I54
I296
tp98
sS'35047'
p99
(I126
I560
tp100
sS'35046'
p101
(I25
I225
tp102
sS'35041'
p103
(I73
I355
tp104
sS'35040'
p105
(I91
I425
tp106
sS'35043'
p107
(I18
I190
tp108
sS'35042'
p109
(I111
I492
tp110
sS'35226'
p111
(I118
I525
tp112
sS'35147'
p113
(I156
I643
tp114
sS'35190'
p115
(I125
I557
tp116
sS'35038'
p117
(I23
I217
tp118
sS'35130'
p119
(I32
I255
tp120
sS'35133'
p121
(I50
I285
tp122
sS'35132'
p123
(I16
I187
tp124
sS'35135'
p125
(I144
I617
tp126
sS'35134'
p127
(I153
I638
tp128
sS'35137'
p129
(I139
I605
tp130
sS'35136'
p131
(I134
I585
tp132
sS'35139'
p133
(I10
I164
tp134
sS'35138'
p135
(I26
I225
tp136
sS'35034'
p137
(I51
I287
tp138
sS'35197'
p139
(I1
I92
tp140
sS'35196'
p141
(I2
I96
tp142
sS'35195'
p143
(I14
I183
tp144
sS'35194'
p145
(I114
I512
tp146
sS'35193'
p147
(I85
I394
tp148
sS'35192'
p149
(I38
I265
tp150
sS'35058'
p151
(I13
I178
tp152
sS'35059'
p153
(I60
I322
tp154
sS'35056'
p155
(I21
I213
tp156
sS'35157'
p157
(I110
I491
tp158
sS'35054'
p159
(I9
I164
tp160
sS'35055'
p161
(I59
I317
tp162
sS'35052'
p163
(I31
I247
tp164
sS'35053'
p165
(I61
I323
tp166
sS'35199'
p167
(I49
I284
tp168
sS'35198'
p169
(I20
I194
tp170
sS'35050'
p171
(I88
I406
tp172
sS'35051'
p173
(I94
I432
tp174
sS'35148'
p175
(I115
I513
tp176
sS'35022'
p177
(I108
I487
tp178
sS'35142'
p179
(I164
I689
tp180
sS'35180'
p181
(I143
I610
tp182
sS'35181'
p183
(I121
I536
tp184
sS'35069'
p185
(I8
I163
tp186
sS'35068'
p187
(I77
I367
tp188
sS'35184'
p189
(I148
I622
tp190
sS'35185'
p191
(I162
I675
tp192
sS'35186'
p193
(I161
I671
tp194
sS'35187'
p195
(I133
I580
tp196
sS'35063'
p197
(I28
I229
tp198
sS'35060'
p199
(I78
I371
tp200
sS'35067'
p201
(I165
I705
tp202
sS'35066'
p203
(I72
I351
tp204
sS'35065'
p205
(I95
I434
tp206
sS'35064'
p207
(I84
I391
tp208
sS'35156'
p209
(I135
I587
tp210
sS'35143'
p211
(I128
I562
tp212
sS'35013'
p213
(I57
I310
tp214
sS'35179'
p215
(I93
I431
tp216
sS'35178'
p217
(I79
I380
tp218
sS'35175'
p219
(I70
I349
tp220
sS'35174'
p221
(I29
I239
tp222
sS'35177'
p223
(I45
I275
tp224
sS'35176'
p225
(I76
I366
tp226
sS'35171'
p227
(I142
I608
tp228
sS'35170'
p229
(I105
I464
tp230
sS'35173'
p231
(I36
I263
tp232
sS'35172'
p233
(I86
I398
tp234
sS'35168'
p235
(I130
I570
tp236
sS'35169'
p237
(I53
I294
tp238
sS'35166'
p239
(I119
I526
tp240
sS'35167'
p241
(I103
I461
tp242
sS'35164'
p243
(I136
I588
tp244
sS'35165'
p245
(I140
I606
tp246
sS'35162'
p247
(I83
I389
tp248
sS'35160'
p249
(I120
I529
tp250
sS'35161'
p251
(I122
I546
tp252
sS'35089'
p253
(I98
I454
tp254
sS'35088'
p255
(I46
I277
tp256
sS'35081'
p257
(I123
I548
tp258
sS'35080'
p259
(I56
I301
tp260
sS'35083'
p261
(I44
I274
tp262
sS'35082'
p263
(I104
I464
tp264
sS'35085'
p265
(I157
I644
tp266
sS'35084'
p267
(I158
I646
tp268
sS'35087'
p269
(I132
I580
tp270
sS'35086'
p271
(I151
I633
tp272
sS'35074'
p273
(I11
I169
tp274
sS'35075'
p275
(I47
I278
tp276
sS'35070'
p277
(I4
I124
tp278
sS'35071'
p279
(I100
I456
tp280
sS'35072'
p281
(I68
I348
tp282
sS'35073'
p283
(I69
I349
tp284
sS'35078'
p285
(I15
I187
tp286
sS'35079'
p287
(I48
I280
tp288
sS'35225'
p289
(I163
I678
tp290
sS'35227'
p291
(I90
I419
tp292
sS'35158'
p293
(I89
I417
tp294
sS'35153'
p295
(I112
I499
tp296
sS'35152'
p297
(I63
I338
tp298
sS'35151'
p299
(I96
I437
tp300
sS'35150'
p301
(I82
I388
tp302
sS'35229'
p303
(I62
I324
tp304
sS'35228'
p305
(I66
I341
tp306
sS'35155'
p307
(I52
I294
tp308
sS'35154'
p309
(I30
I245
tp310
sS'35092'
p311
(I147
I622
tp312
sS'35093'
p313
(I64
I341
tp314
sS'35057'
p315
(I145
I620
tp316
sS'35091'
p317
(I40
I271
tp318
sS'35001'
p319
(I160
I668
tp320
sS'35003'
p321
(I146
I621
tp322
sS'35004'
p323
(I39
I268
tp324
sS'35007'
p325
(I74
I357
tp326
sS'35009'
p327
(I116
I514
tp328
sS'35008'
p329
(I55
I298
tp330
s.