(dp0
S'36060'
p1
(I98
I444
tp2
sS'36061'
p3
(I86
I385
tp4
sS'36602'
p5
(I33
I195
tp6
sS'36049'
p7
(I101
I453
tp8
sS'36416'
p9
(I106
I482
tp10
sS'36053'
p11
(I55
I261
tp12
sS'36614'
p13
(I85
I381
tp14
sS'36617'
p15
(I42
I234
tp16
sS'36050'
p17
(I90
I403
tp18
sS'36057'
p19
(I53
I254
tp20
sS'36056'
p21
(I73
I347
tp22
sS'36055'
p23
(I46
I240
tp24
sS'36054'
p25
(I49
I249
tp26
sS'36059'
p27
(I38
I223
tp28
sS'36058'
p29
(I34
I201
tp30
sS'36619'
p31
(I10
I134
tp32
sS'36618'
p33
(I75
I349
tp34
sS'36018'
p35
(I32
I195
tp36
sS'36615'
p37
(I19
I165
tp38
sS'36052'
p39
(I102
I460
tp40
sS'36051'
p41
(I108
I499
tp42
sS'36606'
p43
(I50
I250
tp44
sS'36607'
p45
(I64
I297
tp46
sS'36604'
p47
(I77
I354
tp48
sS'36605'
p49
(I88
I389
tp50
sS'36048'
p51
(I9
I132
tp52
sS'36603'
p53
(I7
I124
tp54
sS'36601'
p55
(I60
I290
tp56
sS'36044'
p57
(I45
I238
tp58
sS'36045'
p59
(I18
I156
tp60
sS'36046'
p61
(I8
I125
tp62
sS'36047'
p63
(I2
I108
tp64
sS'36040'
p65
(I68
I328
tp66
sS'36041'
p67
(I69
I333
tp68
sS'36042'
p69
(I71
I336
tp70
sS'36043'
p71
(I67
I327
tp72
sS'36613'
p73
(I28
I190
tp74
sS'36612'
p75
(I92
I417
tp76
sS'36611'
p77
(I100
I452
tp78
sS'36039'
p79
(I52
I253
tp80
sS'36038'
p81
(I41
I228
tp82
sS'36631'
p83
(I13
I147
tp84
sS'36630'
p85
(I14
I148
tp86
sS'36031'
p87
(I107
I485
tp88
sS'36030'
p89
(I51
I253
tp90
sS'36033'
p91
(I37
I217
tp92
sS'36032'
p93
(I40
I228
tp94
sS'36035'
p95
(I21
I170
tp96
sS'36034'
p97
(I79
I356
tp98
sS'36037'
p99
(I57
I273
tp100
sS'36610'
p101
(I74
I349
tp102
sS'36028'
p103
(I30
I193
tp104
sS'36029'
p105
(I56
I266
tp106
sS'36629'
p107
(I61
I290
tp108
sS'36624'
p109
(I3
I108
tp110
sS'36023'
p111
(I70
I336
tp112
sS'36626'
p113
(I6
I114
tp114
sS'36021'
p115
(I11
I136
tp116
sS'36620'
p117
(I5
I114
tp118
sS'36027'
p119
(I78
I355
tp120
sS'36622'
p121
(I63
I296
tp122
sS'36025'
p123
(I26
I187
tp124
sS'36022'
p125
(I104
I471
tp126
sS'36625'
p127
(I22
I176
tp128
sS'36020'
p129
(I83
I369
tp130
sS'36017'
p131
(I39
I225
tp132
sS'36016'
p133
(I93
I419
tp134
sS'36015'
p135
(I82
I361
tp136
sS'36014'
p137
(I72
I338
tp138
sS'36013'
p139
(I36
I203
tp140
sS'36012'
p141
(I97
I438
tp142
sS'36011'
p143
(I20
I167
tp144
sS'36010'
p145
(I84
I377
tp146
sS'36026'
p147
(I103
I467
tp148
sS'36019'
p149
(I59
I281
tp150
sS'36621'
p151
(I54
I260
tp152
sS'36024'
p153
(I76
I351
tp154
sS'36623'
p155
(I1
I105
tp156
sS'36608'
p157
(I23
I177
tp158
sS'36000'
p159
(I47
I244
tp160
sS'36001'
p161
(I95
I433
tp162
sS'36002'
p163
(I80
I361
tp164
sS'36003'
p165
(I27
I189
tp166
sS'36004'
p167
(I96
I433
tp168
sS'36005'
p169
(I66
I325
tp170
sS'36006'
p171
(I89
I399
tp172
sS'36007'
p173
(I81
I361
tp174
sS'36008'
p175
(I94
I431
tp176
sS'36009'
p177
(I29
I192
tp178
sS'36632'
p179
(I17
I154
tp180
sS'36418'
p181
(I15
I151
tp182
sS'36413'
p183
(I4
I112
tp184
sS'36412'
p185
(I24
I182
tp186
sS'36411'
p187
(I87
I386
tp188
sS'36410'
p189
(I62
I293
tp190
sS'36417'
p191
(I48
I245
tp192
sS'36609'
p193
(I65
I316
tp194
sS'36415'
p195
(I58
I273
tp196
sS'36414'
p197
(I12
I144
tp198
sS'36404'
p199
(I43
I237
tp200
sS'36405'
p201
(I25
I184
tp202
sS'36406'
p203
(I16
I154
tp204
sS'36407'
p205
(I35
I201
tp206
sS'36401'
p207
(I31
I193
tp208
sS'36403'
p209
(I99
I447
tp210
sS'36408'
p211
(I44
I237
tp212
sS'36409'
p213
(I91
I405
tp214
sS'36036'
p215
(I105
I472
tp216
s.